	.file	"runtime.cpp"
	.text
.Ltext0:
	.align 2
	.p2align 4,,15
	.globl	_ZN7RuntimeD2Ev
	.type	_ZN7RuntimeD2Ev, @function
_ZN7RuntimeD2Ev:
.LFB182:
	.file 1 "kvm/runtime.cpp"
	.loc 1 17 0
	.cfi_startproc
.LVL0:
	pushl	%ebp
	.cfi_def_cfa_offset 8
	.cfi_offset 5, -8
	pushl	%edi
	.cfi_def_cfa_offset 12
	.cfi_offset 7, -12
	pushl	%esi
	.cfi_def_cfa_offset 16
	.cfi_offset 6, -16
	pushl	%ebx
	.cfi_def_cfa_offset 20
	.cfi_offset 3, -20
	call	__x86.get_pc_thunk.bx
	addl	$_GLOBAL_OFFSET_TABLE_, %ebx
	subl	$24, %esp
	.cfi_def_cfa_offset 44
	.loc 1 17 0
	movl	44(%esp), %ebp
.LBB997:
	leal	8+_ZTV7Runtime@GOTOFF(%ebx), %eax
	movl	%eax, 0(%ebp)
.LVL1:
.LBB998:
.LBB999:
.LBB1000:
	.file 2 "include/string.hpp"
	.loc 2 43 0
	pushl	572(%ebp)
	.cfi_def_cfa_offset 48
	call	kfree@PLT
.LVL2:
.LBE1000:
.LBE999:
.LBE998:
.LBB1001:
.LBB1002:
	.file 3 "include/vector.h"
	.loc 3 53 0
	popl	%edx
	.cfi_def_cfa_offset 44
	pushl	500(%ebp)
	.cfi_def_cfa_offset 48
	call	kfree@PLT
.LVL3:
.LBE1002:
.LBE1001:
.LBB1003:
.LBB1004:
	popl	%ecx
	.cfi_def_cfa_offset 44
	pushl	488(%ebp)
	.cfi_def_cfa_offset 48
	call	kfree@PLT
.LVL4:
.LBE1004:
.LBE1003:
.LBB1005:
.LBB1006:
	popl	%esi
	.cfi_def_cfa_offset 44
	pushl	476(%ebp)
	.cfi_def_cfa_offset 48
	xorl	%esi, %esi
	call	kfree@PLT
.LVL5:
.LBE1006:
.LBE1005:
.LBB1007:
.LBB1008:
.LBB1009:
	.loc 2 43 0
	popl	%edi
	.cfi_def_cfa_offset 44
	pushl	144(%ebp)
	.cfi_def_cfa_offset 48
	xorl	%edi, %edi
	call	kfree@PLT
.LVL6:
.LBE1009:
.LBE1008:
.LBB1010:
.LBB1011:
.LBB1012:
	.loc 3 49 0
	movl	132(%ebp), %eax
	addl	$16, %esp
	.cfi_def_cfa_offset 32
	testl	%eax, %eax
	je	.L3
.LVL7:
	.p2align 4,,10
	.p2align 3
.L5:
.LBB1013:
.LBB1014:
.LBB1015:
	.loc 2 43 0
	movl	128(%ebp), %eax
	subl	$12, %esp
	.cfi_def_cfa_offset 44
.LBE1015:
.LBE1014:
.LBE1013:
	.loc 3 49 0
	addl	$1, %esi
.LVL8:
.LBB1018:
.LBB1017:
.LBB1016:
	.loc 2 43 0
	pushl	4(%eax,%edi)
	.cfi_def_cfa_offset 48
.LVL9:
	addl	$24, %edi
.LVL10:
	call	kfree@PLT
.LVL11:
.LBE1016:
.LBE1017:
.LBE1018:
	.loc 3 49 0
	addl	$16, %esp
	.cfi_def_cfa_offset 32
	cmpl	%esi, 132(%ebp)
	ja	.L5
.LVL12:
.L3:
.LBE1012:
	.loc 3 53 0
	subl	$12, %esp
	.cfi_def_cfa_offset 44
	pushl	128(%ebp)
	.cfi_def_cfa_offset 48
	call	kfree@PLT
.LVL13:
.LBE1011:
.LBE1010:
.LBE1007:
.LBB1019:
.LBB1020:
	.loc 2 43 0
	popl	%eax
	.cfi_def_cfa_offset 44
	pushl	72(%ebp)
	.cfi_def_cfa_offset 48
	call	kfree@PLT
.LVL14:
.LBE1020:
.LBE1019:
.LBE997:
	.loc 1 20 0
	addl	$16, %esp
	.cfi_def_cfa_offset 32
	addl	$12, %esp
	.cfi_def_cfa_offset 20
	popl	%ebx
	.cfi_restore 3
	.cfi_def_cfa_offset 16
	popl	%esi
	.cfi_restore 6
	.cfi_def_cfa_offset 12
	popl	%edi
	.cfi_restore 7
	.cfi_def_cfa_offset 8
	popl	%ebp
	.cfi_restore 5
	.cfi_def_cfa_offset 4
	ret
	.cfi_endproc
.LFE182:
	.size	_ZN7RuntimeD2Ev, .-_ZN7RuntimeD2Ev
	.globl	_ZN7RuntimeD1Ev
	.set	_ZN7RuntimeD1Ev,_ZN7RuntimeD2Ev
	.align 2
	.p2align 4,,15
	.globl	_ZN7RuntimeD0Ev
	.type	_ZN7RuntimeD0Ev, @function
_ZN7RuntimeD0Ev:
.LFB184:
	.loc 1 17 0
	.cfi_startproc
.LVL15:
	pushl	%esi
	.cfi_def_cfa_offset 8
	.cfi_offset 6, -8
	pushl	%ebx
	.cfi_def_cfa_offset 12
	.cfi_offset 3, -12
	call	__x86.get_pc_thunk.bx
	addl	$_GLOBAL_OFFSET_TABLE_, %ebx
	subl	$16, %esp
	.cfi_def_cfa_offset 28
	.loc 1 17 0
	movl	28(%esp), %esi
	.loc 1 20 0
	pushl	%esi
	.cfi_def_cfa_offset 32
	call	_ZN7RuntimeD1Ev
.LVL16:
	popl	%eax
	.cfi_def_cfa_offset 28
	popl	%edx
	.cfi_def_cfa_offset 24
	pushl	$716
	.cfi_def_cfa_offset 28
	pushl	%esi
	.cfi_def_cfa_offset 32
	call	_Zdl@PLT
.LVL17:
	addl	$20, %esp
	.cfi_def_cfa_offset 12
	popl	%ebx
	.cfi_restore 3
	.cfi_def_cfa_offset 8
	popl	%esi
	.cfi_restore 6
	.cfi_def_cfa_offset 4
	ret
	.cfi_endproc
.LFE184:
	.size	_ZN7RuntimeD0Ev, .-_ZN7RuntimeD0Ev
	.section	.rodata.str1.1,"aMS",@progbits,1
.LC0:
	.string	""
	.text
	.align 2
	.p2align 4,,15
	.globl	_ZN7RuntimeC2Ev
	.type	_ZN7RuntimeC2Ev, @function
_ZN7RuntimeC2Ev:
.LFB179:
	.loc 1 8 0
	.cfi_startproc
.LVL18:
	pushl	%ebp
	.cfi_def_cfa_offset 8
	.cfi_offset 5, -8
	pushl	%edi
	.cfi_def_cfa_offset 12
	.cfi_offset 7, -12
	pushl	%esi
	.cfi_def_cfa_offset 16
	.cfi_offset 6, -16
	pushl	%ebx
	.cfi_def_cfa_offset 20
	.cfi_offset 3, -20
	call	__x86.get_pc_thunk.bx
	addl	$_GLOBAL_OFFSET_TABLE_, %ebx
	subl	$24, %esp
	.cfi_def_cfa_offset 44
	.loc 1 8 0
	movl	44(%esp), %esi
.LBB1055:
	leal	8+_ZTV7Runtime@GOTOFF(%ebx), %eax
	movl	%eax, (%esi)
.LVL19:
	leal	84(%esi), %eax
.LBB1056:
.LBB1057:
	.file 4 "kvm/runtime.h"
	.loc 4 249 0
	movb	$1, 4(%esi)
	movb	$1, 5(%esi)
	movb	$1, 6(%esi)
	movb	$1, 7(%esi)
	movl	$0, 8(%esi)
	movl	$0, 12(%esi)
.LVL20:
.LBE1057:
.LBE1056:
	.loc 1 8 0
	movl	$0, 36(%esi)
	movl	$1024, 44(%esi)
	movl	$4096, 48(%esi)
	movl	$-2147483648, 52(%esi)
	movl	$16384, 56(%esi)
	movl	$8388608, 60(%esi)
	movl	$16384, 64(%esi)
	movl	$1048576, 68(%esi)
.LVL21:
.LBB1058:
.LBB1059:
	.loc 2 21 0
	movl	$0, 72(%esi)
	movl	$0, 76(%esi)
	movl	$0, 80(%esi)
.LVL22:
.LBE1059:
.LBE1058:
	.loc 1 8 0
	pushl	%eax
	.cfi_def_cfa_offset 48
	call	_ZN6ModuleC1Ev@PLT
.LVL23:
	leal	284(%esi), %eax
	leal	464(%esi), %edx
.LBB1060:
.LBB1061:
	.file 5 "kvm/module.h"
	.loc 5 33 0
	movl	$0, 164(%esi)
	movl	$0, 168(%esi)
	movl	$0, 172(%esi)
	addl	$16, %esp
	.cfi_def_cfa_offset 32
	movl	$0, 176(%esi)
	movl	$0, 180(%esi)
	movl	$0, 268(%esi)
	movl	$0, 272(%esi)
	.p2align 4,,10
	.p2align 3
.L13:
.LVL24:
.LBB1062:
.LBB1063:
	.loc 5 26 0
	movb	$0, (%eax)
.LVL25:
	addl	$12, %eax
.LBE1063:
.LBE1062:
	.loc 5 33 0
	cmpl	%eax, %edx
	jne	.L13
.LBE1061:
.LBE1060:
	.loc 1 8 0
	leal	532(%esi), %eax
	subl	$12, %esp
	.cfi_def_cfa_offset 44
.LBB1066:
.LBB1064:
	.loc 5 33 0
	movl	$0, 456(%esi)
	movb	$0, 460(%esi)
	movl	$0, 464(%esi)
.LBE1064:
.LBE1066:
.LBB1067:
.LBB1068:
.LBB1069:
.LBB1070:
	.loc 2 27 0
	leal	.LC0@GOTOFF(%ebx), %edi
.LBE1070:
.LBE1069:
.LBE1068:
.LBE1067:
.LBB1074:
.LBB1065:
	.loc 5 33 0
	movl	$0, 472(%esi)
.LVL26:
.LBE1065:
.LBE1074:
.LBB1075:
.LBB1076:
	.loc 3 26 0
	movl	$0, 476(%esi)
	movl	$0, 480(%esi)
	movl	$0, 484(%esi)
.LVL27:
.LBE1076:
.LBE1075:
.LBB1077:
.LBB1078:
	movl	$0, 488(%esi)
	movl	$0, 492(%esi)
	movl	$0, 496(%esi)
.LVL28:
.LBE1078:
.LBE1077:
.LBB1079:
.LBB1080:
	movl	$0, 500(%esi)
	movl	$0, 504(%esi)
	movl	$0, 508(%esi)
.LVL29:
.LBE1080:
.LBE1079:
	.loc 1 8 0
	movl	$0, 516(%esi)
	movl	$0, 520(%esi)
	movb	$0, 524(%esi)
	movl	$2, 528(%esi)
	pushl	%eax
	.cfi_def_cfa_offset 48
	call	_ZN7Runtime13MemoryManagerC1Ev@PLT
.LVL30:
.LBB1081:
.LBB1073:
	.loc 4 307 0
	movb	$0, 556(%esi)
	movb	$0, 557(%esi)
	movl	$0, 560(%esi)
	movl	$1, 564(%esi)
	movl	$0, 568(%esi)
.LVL31:
.LBB1072:
.LBB1071:
	.loc 2 26 0
	movl	$0, 572(%esi)
	movl	$0, 576(%esi)
	movl	$0, 580(%esi)
	.loc 2 27 0
	movl	%edi, (%esp)
	call	strlen@PLT
.LVL32:
	movl	%eax, 580(%esi)
	.loc 2 28 0
	addl	$1, %eax
	movl	%eax, 576(%esi)
	.loc 2 29 0
	movl	%eax, (%esp)
	call	kmalloc@PLT
.LVL33:
	movl	%eax, 572(%esi)
	.loc 2 30 0
	popl	%edx
	.cfi_def_cfa_offset 44
	popl	%ecx
	.cfi_def_cfa_offset 40
	pushl	%edi
	.cfi_def_cfa_offset 44
	pushl	%eax
	.cfi_def_cfa_offset 48
	call	strcpy@PLT
.LVL34:
.LBE1071:
.LBE1072:
.LBE1073:
.LBE1081:
	.loc 1 8 0
	leal	584(%esi), %eax
	movl	%eax, (%esp)
	call	_ZN3LogC1Ev@PLT
.LVL35:
.LBB1082:
.LBB1083:
	.loc 3 75 0
	addl	$16, %esp
	.cfi_def_cfa_offset 32
	cmpl	$8, 484(%esi)
	jbe	.L26
.L14:
.LVL36:
.LBE1083:
.LBE1082:
.LBB1088:
.LBB1089:
	cmpl	$16, 508(%esi)
	jbe	.L27
.L18:
.LVL37:
.LBE1089:
.LBE1088:
	.loc 1 12 0
	movl	$4, 528(%esi)
	.loc 1 13 0
	movl	%esi, _ZN7Runtime8InstanceE@GOTOFF(%ebx)
.LBE1055:
	.loc 1 15 0
	addl	$12, %esp
	.cfi_remember_state
	.cfi_def_cfa_offset 20
	popl	%ebx
	.cfi_restore 3
	.cfi_def_cfa_offset 16
	popl	%esi
	.cfi_restore 6
	.cfi_def_cfa_offset 12
	popl	%edi
	.cfi_restore 7
	.cfi_def_cfa_offset 8
	popl	%ebp
	.cfi_restore 5
	.cfi_def_cfa_offset 4
	ret
.LVL38:
	.p2align 4,,10
	.p2align 3
.L27:
	.cfi_restore_state
.LBB1097:
.LBB1095:
.LBB1094:
.LBB1090:
.LBB1091:
	.loc 3 78 0
	subl	$12, %esp
	.cfi_def_cfa_offset 44
	pushl	$16
	.cfi_def_cfa_offset 48
	call	get_capacity@PLT
.LVL39:
	movl	%eax, 508(%esi)
	.loc 3 79 0
	movl	$192, (%esp)
	call	kmalloc@PLT
.LVL40:
.LBB1092:
	.loc 3 81 0
	movl	504(%esi), %edx
	addl	$16, %esp
	.cfi_def_cfa_offset 32
.LBE1092:
	.loc 3 79 0
	movl	%eax, %edi
.LVL41:
	movl	500(%esi), %eax
.LVL42:
.LBB1093:
	.loc 3 81 0
	testl	%edx, %edx
	je	.L20
	leal	(%edx,%edx,2), %ebp
	xorl	%edx, %edx
	sall	$2, %ebp
.LVL43:
	.p2align 4,,10
	.p2align 3
.L21:
	.loc 3 83 0
	movl	(%eax,%edx), %ecx
	movl	%ecx, (%edi,%edx)
	movl	4(%eax,%edx), %ecx
	movl	%ecx, 4(%edi,%edx)
	movl	8(%eax,%edx), %ecx
	movl	%ecx, 8(%edi,%edx)
	addl	$12, %edx
	.loc 3 81 0
	cmpl	%edx, %ebp
	jne	.L21
.L20:
.LBE1093:
	.loc 3 86 0
	subl	$12, %esp
	.cfi_def_cfa_offset 44
	pushl	%eax
	.cfi_def_cfa_offset 48
	call	kfree@PLT
.LVL44:
	.loc 3 87 0
	movl	%edi, 500(%esi)
	addl	$16, %esp
	.cfi_def_cfa_offset 32
	jmp	.L18
.LVL45:
	.p2align 4,,10
	.p2align 3
.L26:
.LBE1091:
.LBE1090:
.LBE1094:
.LBE1095:
.LBB1096:
.LBB1087:
.LBB1084:
.LBB1085:
	.loc 3 78 0
	subl	$12, %esp
	.cfi_def_cfa_offset 44
	pushl	$8
	.cfi_def_cfa_offset 48
	call	get_capacity@PLT
.LVL46:
	movl	%eax, 484(%esi)
	.loc 3 79 0
	movl	$32, (%esp)
	call	kmalloc@PLT
.LVL47:
	movl	%eax, %edi
.LVL48:
.LBB1086:
	.loc 3 81 0
	movl	480(%esi), %eax
.LVL49:
	addl	$16, %esp
	.cfi_def_cfa_offset 32
	movl	476(%esi), %ebp
	testl	%eax, %eax
	je	.L16
	xorl	%edx, %edx
.LVL50:
	.p2align 4,,10
	.p2align 3
.L17:
	.loc 3 83 0
	movl	0(%ebp,%edx,4), %ecx
	movl	%ecx, (%edi,%edx,4)
	.loc 3 81 0
	addl	$1, %edx
.LVL51:
	cmpl	%eax, %edx
	jne	.L17
.LVL52:
.L16:
.LBE1086:
	.loc 3 86 0
	subl	$12, %esp
	.cfi_def_cfa_offset 44
	pushl	%ebp
	.cfi_def_cfa_offset 48
	call	kfree@PLT
.LVL53:
	.loc 3 87 0
	movl	%edi, 476(%esi)
	addl	$16, %esp
	.cfi_def_cfa_offset 32
	jmp	.L14
.LBE1085:
.LBE1084:
.LBE1087:
.LBE1096:
.LBE1097:
	.cfi_endproc
.LFE179:
	.size	_ZN7RuntimeC2Ev, .-_ZN7RuntimeC2Ev
	.globl	_ZN7RuntimeC1Ev
	.set	_ZN7RuntimeC1Ev,_ZN7RuntimeC2Ev
	.align 2
	.p2align 4,,15
	.globl	_ZN7Runtime4LoadEv
	.type	_ZN7Runtime4LoadEv, @function
_ZN7Runtime4LoadEv:
.LFB188:
	.loc 1 76 0
	.cfi_startproc
.LVL54:
	pushl	%esi
	.cfi_def_cfa_offset 8
	.cfi_offset 6, -8
	pushl	%ebx
	.cfi_def_cfa_offset 12
	.cfi_offset 3, -12
	call	__x86.get_pc_thunk.bx
	addl	$_GLOBAL_OFFSET_TABLE_, %ebx
	subl	$32, %esp
	.cfi_def_cfa_offset 44
	.loc 1 76 0
	movl	44(%esp), %esi
.LBB1103:
.LBB1104:
.LBB1105:
	.loc 2 34 0
	movl	$0, 16(%esp)
	.loc 2 35 0
	movl	80(%esi), %eax
.LBE1105:
.LBE1104:
.LBE1103:
	.loc 1 77 0
	movl	%esi, 88(%esi)
.LVL55:
.LBB1108:
.LBB1107:
.LBB1106:
	.loc 2 35 0
	movl	%eax, 24(%esp)
	.loc 2 36 0
	movl	76(%esi), %eax
	movl	%eax, 20(%esp)
	.loc 2 37 0
	pushl	%eax
	.cfi_def_cfa_offset 48
	call	kmalloc@PLT
.LVL56:
	movl	%eax, 20(%esp)
	.loc 2 38 0
	popl	%edx
	.cfi_def_cfa_offset 44
	popl	%ecx
	.cfi_def_cfa_offset 40
	pushl	72(%esi)
	.cfi_def_cfa_offset 44
	pushl	%eax
	.cfi_def_cfa_offset 48
	call	strcpy@PLT
.LVL57:
.LBE1106:
.LBE1107:
.LBE1108:
	.loc 1 78 0
	popl	%eax
	.cfi_def_cfa_offset 44
	popl	%edx
	.cfi_def_cfa_offset 40
	leal	12(%esp), %eax
	pushl	%eax
	.cfi_def_cfa_offset 44
	leal	84(%esi), %eax
	pushl	%eax
	.cfi_def_cfa_offset 48
	call	_ZN6Module4LoadEN4kstd6stringE@PLT
.LVL58:
.LBB1109:
.LBB1110:
	.loc 2 43 0
	popl	%ecx
	.cfi_def_cfa_offset 44
	pushl	16(%esp)
	.cfi_def_cfa_offset 48
	call	kfree@PLT
.LVL59:
.LBE1110:
.LBE1109:
	.loc 1 79 0
	orl	$16, 528(%esi)
	.loc 1 82 0
	addl	$36, %esp
	.cfi_def_cfa_offset 12
	popl	%ebx
	.cfi_restore 3
	.cfi_def_cfa_offset 8
	popl	%esi
	.cfi_restore 6
	.cfi_def_cfa_offset 4
	ret
	.cfi_endproc
.LFE188:
	.size	_ZN7Runtime4LoadEv, .-_ZN7Runtime4LoadEv
	.align 2
	.p2align 4,,15
	.globl	_ZN7Runtime6UnloadEv
	.type	_ZN7Runtime6UnloadEv, @function
_ZN7Runtime6UnloadEv:
.LFB191:
	.loc 1 217 0
	.cfi_startproc
.LVL60:
	pushl	%ebp
	.cfi_def_cfa_offset 8
	.cfi_offset 5, -8
	pushl	%edi
	.cfi_def_cfa_offset 12
	.cfi_offset 7, -12
	pushl	%esi
	.cfi_def_cfa_offset 16
	.cfi_offset 6, -16
	pushl	%ebx
	.cfi_def_cfa_offset 20
	.cfi_offset 3, -20
	call	__x86.get_pc_thunk.bx
	addl	$_GLOBAL_OFFSET_TABLE_, %ebx
	subl	$40, %esp
	.cfi_def_cfa_offset 60
	.loc 1 217 0
	movl	60(%esp), %edi
.LVL61:
.LBB1111:
.LBB1112:
	.loc 3 149 0
	pushl	500(%edi)
	.cfi_def_cfa_offset 64
	call	kfree@PLT
.LVL62:
.LBE1112:
.LBE1111:
	.loc 1 229 0
	leal	84(%edi), %eax
.LBB1114:
.LBB1113:
	.loc 3 150 0
	movl	$0, 508(%edi)
	movl	$0, 504(%edi)
	.loc 3 151 0
	movl	$0, 500(%edi)
.LVL63:
.LBE1113:
.LBE1114:
	.loc 1 229 0
	movl	%eax, (%esp)
	call	_ZN6Module6UnloadEv@PLT
.LVL64:
	movl	476(%edi), %esi
.LVL65:
.LBB1115:
.LBB1116:
.LBB1117:
	.loc 3 127 0
	movl	480(%edi), %eax
	leal	(%esi,%eax,4), %eax
	movl	%eax, 28(%esp)
.LVL66:
.LBE1117:
.LBE1116:
	.loc 1 230 0
	addl	$16, %esp
	.cfi_def_cfa_offset 48
	cmpl	%esi, %eax
	je	.L34
.LVL67:
	.p2align 4,,10
	.p2align 3
.L40:
	.loc 1 230 0 is_stmt 0 discriminator 2
	movl	(%esi), %ebp
.LVL68:
	.loc 1 232 0 is_stmt 1 discriminator 2
	subl	$12, %esp
	.cfi_def_cfa_offset 60
	addl	$4, %esi
.LVL69:
	pushl	%ebp
	.cfi_def_cfa_offset 64
	call	_ZN6Module6UnloadEv@PLT
.LVL70:
	.loc 1 233 0 discriminator 2
	movl	%ebp, (%esp)
	call	kfree@PLT
.LVL71:
	.loc 1 230 0 discriminator 2
	addl	$16, %esp
	.cfi_def_cfa_offset 48
	cmpl	%esi, 12(%esp)
	jne	.L40
.LVL72:
.L34:
	movl	488(%edi), %ebp
.LVL73:
.LBE1115:
.LBB1118:
.LBB1119:
.LBB1120:
	.loc 3 127 0
	movl	492(%edi), %eax
	leal	0(%ebp,%eax,4), %esi
.LVL74:
.LBE1120:
.LBE1119:
	.loc 1 235 0
	cmpl	%esi, %ebp
	je	.L32
.LVL75:
	.p2align 4,,10
	.p2align 3
.L37:
	.loc 1 235 0 is_stmt 0 discriminator 2
	movl	0(%ebp), %eax
.LVL76:
	.loc 1 237 0 is_stmt 1 discriminator 2
	testl	%eax, %eax
	je	.L36
	.loc 1 238 0
	subl	$12, %esp
	.cfi_def_cfa_offset 60
	pushl	%eax
	.cfi_def_cfa_offset 64
	call	kfree@PLT
.LVL77:
	addl	$16, %esp
	.cfi_def_cfa_offset 48
.L36:
.LVL78:
	addl	$4, %ebp
.LVL79:
	.loc 1 235 0 discriminator 3
	cmpl	%ebp, %esi
	jne	.L37
.LVL80:
.L32:
.LBE1118:
	.loc 1 240 0
	subl	$12, %esp
	.cfi_def_cfa_offset 60
	pushl	16(%edi)
	.cfi_def_cfa_offset 64
	call	kfree@PLT
.LVL81:
	.loc 1 241 0
	popl	%eax
	.cfi_def_cfa_offset 60
	pushl	24(%edi)
	.cfi_def_cfa_offset 64
	call	kfree@PLT
.LVL82:
	.loc 1 244 0
	leal	532(%edi), %eax
	movl	%eax, (%esp)
	call	_ZN7Runtime13MemoryManager4FreeEv@PLT
.LVL83:
	.loc 1 247 0
	addl	$16, %esp
	.cfi_def_cfa_offset 48
	.loc 1 246 0
	orl	$128, 528(%edi)
	.loc 1 247 0
	addl	$28, %esp
	.cfi_def_cfa_offset 20
	popl	%ebx
	.cfi_restore 3
	.cfi_def_cfa_offset 16
	popl	%esi
	.cfi_restore 6
	.cfi_def_cfa_offset 12
	popl	%edi
	.cfi_restore 7
	.cfi_def_cfa_offset 8
.LVL84:
	popl	%ebp
	.cfi_restore 5
	.cfi_def_cfa_offset 4
	ret
	.cfi_endproc
.LFE191:
	.size	_ZN7Runtime6UnloadEv, .-_ZN7Runtime6UnloadEv
	.align 2
	.p2align 4,,15
	.globl	_ZNK7Runtime14FindFunctionIdEPKc
	.type	_ZNK7Runtime14FindFunctionIdEPKc, @function
_ZNK7Runtime14FindFunctionIdEPKc:
.LFB192:
	.loc 1 249 0
	.cfi_startproc
.LVL85:
	pushl	%ebp
	.cfi_def_cfa_offset 8
	.cfi_offset 5, -8
	pushl	%edi
	.cfi_def_cfa_offset 12
	.cfi_offset 7, -12
	pushl	%esi
	.cfi_def_cfa_offset 16
	.cfi_offset 6, -16
	pushl	%ebx
	.cfi_def_cfa_offset 20
	.cfi_offset 3, -20
	xorl	%esi, %esi
	call	__x86.get_pc_thunk.bx
	addl	$_GLOBAL_OFFSET_TABLE_, %ebx
	subl	$12, %esp
	.cfi_def_cfa_offset 32
	.loc 1 249 0
	movl	32(%esp), %ebp
	movl	36(%esp), %edi
.LBB1121:
	.loc 1 251 0
	movl	112(%ebp), %eax
	testl	%eax, %eax
	jne	.L52
	jmp	.L48
.LVL86:
	.p2align 4,,10
	.p2align 3
.L56:
	.loc 1 251 0 is_stmt 0 discriminator 2
	addl	$1, %esi
.LVL87:
	cmpl	%esi, 112(%ebp)
	jbe	.L48
.LVL88:
.L52:
	.loc 1 252 0 is_stmt 1
	movl	96(%ebp), %eax
	subl	$8, %esp
	.cfi_def_cfa_offset 40
	pushl	%edi
	.cfi_def_cfa_offset 44
	movl	(%eax,%esi,4), %eax
	addl	$22, %eax
	pushl	%eax
	.cfi_def_cfa_offset 48
	call	strcmp@PLT
.LVL89:
	addl	$16, %esp
	.cfi_def_cfa_offset 32
	testl	%eax, %eax
	jne	.L56
.LBE1121:
	.loc 1 255 0
	addl	$12, %esp
	.cfi_remember_state
	.cfi_def_cfa_offset 20
	movl	%esi, %eax
	popl	%ebx
	.cfi_restore 3
	.cfi_def_cfa_offset 16
	popl	%esi
	.cfi_restore 6
	.cfi_def_cfa_offset 12
.LVL90:
	popl	%edi
	.cfi_restore 7
	.cfi_def_cfa_offset 8
	popl	%ebp
	.cfi_restore 5
	.cfi_def_cfa_offset 4
	ret
.LVL91:
	.p2align 4,,10
	.p2align 3
.L48:
	.cfi_restore_state
	addl	$12, %esp
	.cfi_def_cfa_offset 20
	.loc 1 254 0
	movl	$-1, %esi
	.loc 1 255 0
	popl	%ebx
	.cfi_restore 3
	.cfi_def_cfa_offset 16
	movl	%esi, %eax
	popl	%esi
	.cfi_restore 6
	.cfi_def_cfa_offset 12
	popl	%edi
	.cfi_restore 7
	.cfi_def_cfa_offset 8
	popl	%ebp
	.cfi_restore 5
	.cfi_def_cfa_offset 4
	ret
	.cfi_endproc
.LFE192:
	.size	_ZNK7Runtime14FindFunctionIdEPKc, .-_ZNK7Runtime14FindFunctionIdEPKc
	.align 2
	.p2align 4,,15
	.globl	_ZNK7Runtime14FindFunctionIdEPKcP6RTTypem
	.type	_ZNK7Runtime14FindFunctionIdEPKcP6RTTypem, @function
_ZNK7Runtime14FindFunctionIdEPKcP6RTTypem:
.LFB193:
	.loc 1 257 0
	.cfi_startproc
.LVL92:
	pushl	%ebp
	.cfi_def_cfa_offset 8
	.cfi_offset 5, -8
	pushl	%edi
	.cfi_def_cfa_offset 12
	.cfi_offset 7, -12
	pushl	%esi
	.cfi_def_cfa_offset 16
	.cfi_offset 6, -16
	pushl	%ebx
	.cfi_def_cfa_offset 20
	.cfi_offset 3, -20
	xorl	%esi, %esi
	call	__x86.get_pc_thunk.bx
	addl	$_GLOBAL_OFFSET_TABLE_, %ebx
	subl	$28, %esp
	.cfi_def_cfa_offset 48
	.loc 1 257 0
	movl	48(%esp), %ebp
	movl	52(%esp), %edi
.LBB1122:
	.loc 1 258 0
	movl	112(%ebp), %ecx
	testl	%ecx, %ecx
	je	.L62
.LVL93:
	.p2align 4,,10
	.p2align 3
.L68:
.LBB1123:
	.loc 1 259 0
	movl	96(%ebp), %eax
	subl	$8, %esp
	.cfi_def_cfa_offset 56
	pushl	%edi
	.cfi_def_cfa_offset 60
	movl	(%eax,%esi,4), %eax
	addl	$22, %eax
	pushl	%eax
	.cfi_def_cfa_offset 64
	call	strcmp@PLT
.LVL94:
	addl	$16, %esp
	.cfi_def_cfa_offset 48
	testl	%eax, %eax
	jne	.L60
.LBB1124:
	.loc 1 261 0
	movl	96(%ebp), %eax
	movl	(%eax,%esi,4), %eax
	movl	104(%eax), %ecx
	cmpl	60(%esp), %ecx
	je	.L73
.L60:
.LBE1124:
.LBE1123:
	.loc 1 258 0 discriminator 2
	addl	$1, %esi
.LVL95:
	cmpl	%esi, 112(%ebp)
	ja	.L68
.LVL96:
.L62:
.LBE1122:
	.loc 1 279 0
	movl	$-1, %esi
.L57:
	.loc 1 280 0
	addl	$28, %esp
	.cfi_remember_state
	.cfi_def_cfa_offset 20
	movl	%esi, %eax
	popl	%ebx
	.cfi_restore 3
	.cfi_def_cfa_offset 16
	popl	%esi
	.cfi_restore 6
	.cfi_def_cfa_offset 12
	popl	%edi
	.cfi_restore 7
	.cfi_def_cfa_offset 8
	popl	%ebp
	.cfi_restore 5
	.cfi_def_cfa_offset 4
	ret
.LVL97:
	.p2align 4,,10
	.p2align 3
.L73:
	.cfi_restore_state
.LBB1129:
.LBB1128:
.LBB1127:
.LBB1125:
.LBB1126:
	.loc 1 264 0 discriminator 1
	movl	60(%esp), %edx
	testl	%edx, %edx
	je	.L57
	addl	$116, %eax
	.loc 1 264 0 is_stmt 0
	xorl	%edx, %edx
	movl	%ecx, 12(%esp)
	movl	56(%esp), %edi
	jmp	.L64
.LVL98:
	.p2align 4,,10
	.p2align 3
.L74:
	.loc 1 268 0 is_stmt 1
	movl	(%eax), %ebp
	cmpb	$12, 0(%ebp)
	jne	.L62
	.loc 1 269 0
	cmpl	%ebx, 1(%ebp)
	jne	.L62
	.loc 1 270 0
	movzbl	1(%edi,%edx,2), %ecx
	cmpb	%cl, 5(%ebp)
	jne	.L62
.L63:
	.loc 1 264 0 discriminator 2
	addl	$1, %edx
.LVL99:
	addl	$12, %eax
	cmpl	%edx, 12(%esp)
	je	.L57
.LVL100:
.L64:
	.loc 1 266 0
	movzbl	(%edi,%edx,2), %ebx
	testb	%bl, %bl
	jne	.L74
	.loc 1 273 0
	movl	(%eax), %ebx
	movzbl	1(%edi,%edx,2), %ecx
	cmpb	%cl, (%ebx)
	je	.L63
	jmp	.L62
.LBE1126:
.LBE1125:
.LBE1127:
.LBE1128:
.LBE1129:
	.cfi_endproc
.LFE193:
	.size	_ZNK7Runtime14FindFunctionIdEPKcP6RTTypem, .-_ZNK7Runtime14FindFunctionIdEPKcP6RTTypem
	.align 2
	.p2align 4,,15
	.globl	_ZN7Runtime10RaiseEventENS_8RtExTypeE
	.type	_ZN7Runtime10RaiseEventENS_8RtExTypeE, @function
_ZN7Runtime10RaiseEventENS_8RtExTypeE:
.LFB194:
	.loc 1 283 0
	.cfi_startproc
.LVL101:
	rep ret
	.cfi_endproc
.LFE194:
	.size	_ZN7Runtime10RaiseEventENS_8RtExTypeE, .-_ZN7Runtime10RaiseEventENS_8RtExTypeE
	.section	.rodata.str1.1
.LC1:
	.string	"bool"
.LC2:
	.string	"byte"
.LC3:
	.string	"short"
.LC4:
	.string	"uint"
.LC5:
	.string	"int"
.LC6:
	.string	"ulong"
.LC7:
	.string	"long"
.LC8:
	.string	"double"
.LC9:
	.string	"string"
.LC10:
	.string	"void"
.LC11:
	.string	"[]"
.LC12:
	.string	"<usertype>"
	.text
	.align 2
	.p2align 4,,15
	.globl	_ZN7Runtime9typeToStrEPh
	.type	_ZN7Runtime9typeToStrEPh, @function
_ZN7Runtime9typeToStrEPh:
.LFB201:
	.loc 1 365 0
	.cfi_startproc
.LVL102:
	.loc 1 365 0
	pushl	%ebp
	.cfi_def_cfa_offset 8
	.cfi_offset 5, -8
	pushl	%edi
	.cfi_def_cfa_offset 12
	.cfi_offset 7, -12
	pushl	%esi
	.cfi_def_cfa_offset 16
	.cfi_offset 6, -16
	pushl	%ebx
	.cfi_def_cfa_offset 20
	.cfi_offset 3, -20
	call	__x86.get_pc_thunk.bx
	addl	$_GLOBAL_OFFSET_TABLE_, %ebx
	subl	$60, %esp
	.cfi_def_cfa_offset 80
	.loc 1 366 0
	movl	88(%esp), %ecx
	.loc 1 365 0
	movl	80(%esp), %esi
	.loc 1 366 0
	testl	%ecx, %ecx
	je	.L98
.LVL103:
.LBB1186:
	.loc 1 369 0
	movl	88(%esp), %eax
	cmpb	$12, (%eax)
	ja	.L79
	movzbl	(%eax), %eax
	movl	.L81@GOTOFF(%ebx,%eax,4), %edx
	addl	%ebx, %edx
	jmp	*%edx
	.section	.rodata
	.align 4
	.align 4
.L81:
	.long	.L79@GOTOFF
	.long	.L80@GOTOFF
	.long	.L82@GOTOFF
	.long	.L79@GOTOFF
	.long	.L83@GOTOFF
	.long	.L84@GOTOFF
	.long	.L85@GOTOFF
	.long	.L86@GOTOFF
	.long	.L87@GOTOFF
	.long	.L88@GOTOFF
	.long	.L89@GOTOFF
	.long	.L90@GOTOFF
	.long	.L91@GOTOFF
	.text
	.p2align 4,,10
	.p2align 3
.L91:
.LVL104:
.LBB1187:
.LBB1188:
.LBB1189:
.LBB1190:
	.loc 2 27 0
	leal	.LC0@GOTOFF(%ebx), %edx
	subl	$12, %esp
	.cfi_def_cfa_offset 92
	pushl	%edx
	.cfi_def_cfa_offset 96
.LVL105:
	movl	%edx, 28(%esp)
	call	strlen@PLT
.LVL106:
	movl	%eax, %edi
.LVL107:
	.loc 2 28 0
	leal	1(%eax), %eax
.LVL108:
	.loc 2 29 0
	movl	%eax, 36(%esp)
	movl	%eax, (%esp)
	call	kmalloc@PLT
.LVL109:
	movl	%eax, %ebp
.LVL110:
	.loc 2 30 0
	popl	%eax
	.cfi_def_cfa_offset 92
.LVL111:
	popl	%edx
	.cfi_def_cfa_offset 88
	movl	20(%esp), %edx
	pushl	%edx
	.cfi_def_cfa_offset 92
	pushl	%ebp
	.cfi_def_cfa_offset 96
	call	strcpy@PLT
.LVL112:
.LBE1190:
.LBE1189:
	.loc 1 394 0
	movl	104(%esp), %ecx
	movl	1(%ecx), %eax
	movl	%eax, 44(%esp)
.LVL113:
.LBB1193:
	.loc 1 395 0
	addl	$16, %esp
	.cfi_def_cfa_offset 80
	testl	%eax, %eax
.LBE1193:
.LBB1198:
.LBB1191:
	.loc 2 27 0
	movl	%edi, 12(%esp)
.LBE1191:
.LBE1198:
.LBB1199:
	.loc 1 395 0
	je	.L94
	leal	.LC11@GOTOFF(%ebx), %ecx
	movl	%esi, 80(%esp)
.LVL114:
	movl	20(%esp), %esi
	xorl	%edx, %edx
	movl	%ecx, 16(%esp)
.LVL115:
	.p2align 4,,10
	.p2align 3
.L93:
	movl	%edx, 24(%esp)
.LVL116:
.LBB1194:
.LBB1195:
	.loc 2 80 0
	subl	$12, %esp
	.cfi_def_cfa_offset 92
	pushl	28(%esp)
	.cfi_def_cfa_offset 96
	call	strlen@PLT
.LVL117:
	.loc 2 81 0
	addl	%eax, %esi
.LVL118:
	movl	%eax, 36(%esp)
	movl	%esi, (%esp)
	call	kmalloc@PLT
.LVL119:
	movl	%eax, %edi
.LVL120:
	.loc 2 82 0
	popl	%eax
	.cfi_def_cfa_offset 92
.LVL121:
	popl	%edx
	.cfi_def_cfa_offset 88
	pushl	%ebp
	.cfi_def_cfa_offset 92
	pushl	%edi
	.cfi_def_cfa_offset 96
	call	strcpy@PLT
.LVL122:
	.loc 2 83 0
	popl	%ecx
	.cfi_def_cfa_offset 92
	popl	%eax
	.cfi_def_cfa_offset 88
	pushl	24(%esp)
	.cfi_def_cfa_offset 92
	movl	24(%esp), %eax
	addl	%edi, %eax
	pushl	%eax
	.cfi_def_cfa_offset 96
	call	strcpy@PLT
.LVL123:
	.loc 2 84 0
	movl	%ebp, (%esp)
	.loc 2 81 0
	movl	%edi, %ebp
.LVL124:
	.loc 2 84 0
	call	kfree@PLT
.LVL125:
.LBE1195:
.LBE1194:
	.loc 1 395 0
	movl	40(%esp), %edx
.LBB1197:
.LBB1196:
	.loc 2 87 0
	movl	36(%esp), %ecx
	addl	%ecx, 28(%esp)
.LVL126:
.LBE1196:
.LBE1197:
	.loc 1 395 0
	addl	$16, %esp
	.cfi_def_cfa_offset 80
	addl	$1, %edx
.LVL127:
	cmpl	%edx, 28(%esp)
	jne	.L93
	movl	80(%esp), %esi
.LVL128:
.L92:
.LBE1199:
	.loc 1 397 0
	leal	36(%esp), %eax
	subl	$4, %esp
	.cfi_def_cfa_offset 84
	movl	92(%esp), %ecx
	leal	5(%ecx), %edx
	pushl	%edx
	.cfi_def_cfa_offset 88
	pushl	92(%esp)
	.cfi_def_cfa_offset 92
	pushl	%eax
	.cfi_def_cfa_offset 96
	call	_ZN7Runtime9typeToStrEPh
	.cfi_def_cfa_offset 92
.LVL129:
.LBB1200:
.LBB1201:
.LBB1202:
.LBB1203:
	.loc 2 35 0
	movl	56(%esp), %eax
	.loc 2 34 0
	movl	$0, (%esi)
	.loc 2 35 0
	movl	%eax, 8(%esi)
	.loc 2 36 0
	movl	52(%esp), %eax
	movl	%eax, 4(%esi)
	.loc 2 37 0
	pushl	%eax
	.cfi_def_cfa_offset 96
	call	kmalloc@PLT
.LVL130:
	movl	%eax, (%esi)
	.loc 2 38 0
	popl	%ebp
	.cfi_def_cfa_offset 92
	popl	%edx
	.cfi_def_cfa_offset 88
	pushl	44(%esp)
	.cfi_def_cfa_offset 92
	pushl	%eax
	.cfi_def_cfa_offset 96
	call	strcpy@PLT
.LVL131:
.LBE1203:
.LBE1202:
.LBB1204:
.LBB1205:
	.loc 2 68 0
	movl	28(%esp), %eax
	addl	4(%esi), %eax
	movl	%eax, (%esp)
	call	kmalloc@PLT
.LVL132:
	.loc 2 69 0
	popl	%ecx
	.cfi_def_cfa_offset 92
	.loc 2 68 0
	movl	%eax, %ebp
.LVL133:
	.loc 2 69 0
	popl	%eax
	.cfi_def_cfa_offset 88
.LVL134:
	pushl	(%esi)
	.cfi_def_cfa_offset 92
	pushl	%ebp
	.cfi_def_cfa_offset 96
	call	strcpy@PLT
.LVL135:
	.loc 2 70 0
	movl	8(%esi), %ecx
	popl	%eax
	.cfi_def_cfa_offset 92
	popl	%edx
	.cfi_def_cfa_offset 88
	addl	%ebp, %ecx
	pushl	%edi
	.cfi_def_cfa_offset 92
	pushl	%ecx
	.cfi_def_cfa_offset 96
	call	strcpy@PLT
.LVL136:
	.loc 2 71 0
	popl	%ecx
	.cfi_def_cfa_offset 92
	pushl	(%esi)
	.cfi_def_cfa_offset 96
	call	kfree@PLT
.LVL137:
	.loc 2 73 0
	movl	28(%esp), %eax
	addl	%eax, 4(%esi)
	.loc 2 74 0
	addl	%eax, 8(%esi)
.LVL138:
	.loc 2 72 0
	movl	%ebp, (%esi)
.LBE1205:
.LBE1204:
.LBE1201:
.LBE1200:
.LBB1206:
.LBB1207:
	.loc 2 43 0
	popl	%ebp
	.cfi_def_cfa_offset 92
	pushl	48(%esp)
	.cfi_def_cfa_offset 96
	call	kfree@PLT
.LVL139:
.LBE1207:
.LBE1206:
.LBB1208:
.LBB1209:
	movl	%edi, (%esp)
	call	kfree@PLT
.LVL140:
	addl	$16, %esp
	.cfi_def_cfa_offset 80
	jmp	.L76
.LVL141:
	.p2align 4,,10
	.p2align 3
.L80:
.LBE1209:
.LBE1208:
.LBE1188:
.LBB1211:
.LBB1212:
	.loc 2 27 0
	leal	.LC10@GOTOFF(%ebx), %edi
	.loc 2 26 0
	movl	$0, (%esi)
.LVL142:
	movl	$0, 4(%esi)
	movl	$0, 8(%esi)
	.loc 2 27 0
	subl	$12, %esp
	.cfi_def_cfa_offset 92
.LVL143:
	.p2align 4,,10
	.p2align 3
.L97:
.LBE1212:
.LBE1211:
.LBB1213:
.LBB1214:
	pushl	%edi
	.cfi_def_cfa_offset 96
	call	strlen@PLT
.LVL144:
	movl	%eax, 8(%esi)
	.loc 2 28 0
	addl	$1, %eax
	movl	%eax, 4(%esi)
	.loc 2 29 0
	movl	%eax, (%esp)
	call	kmalloc@PLT
.LVL145:
	movl	%eax, (%esi)
	.loc 2 30 0
	popl	%edx
	.cfi_def_cfa_offset 92
	popl	%ecx
	.cfi_def_cfa_offset 88
	pushl	%edi
	.cfi_def_cfa_offset 92
	pushl	%eax
	.cfi_def_cfa_offset 96
	call	strcpy@PLT
.LVL146:
	addl	$16, %esp
	.cfi_def_cfa_offset 80
.LVL147:
.L76:
.LBE1214:
.LBE1213:
.LBE1187:
.LBE1186:
	.loc 1 402 0
	addl	$60, %esp
	.cfi_remember_state
	.cfi_def_cfa_offset 20
	movl	%esi, %eax
	popl	%ebx
	.cfi_restore 3
	.cfi_def_cfa_offset 16
	popl	%esi
	.cfi_restore 6
	.cfi_def_cfa_offset 12
	popl	%edi
	.cfi_restore 7
	.cfi_def_cfa_offset 8
	popl	%ebp
	.cfi_restore 5
	.cfi_def_cfa_offset 4
	ret	$4
.LVL148:
	.p2align 4,,10
	.p2align 3
.L82:
	.cfi_restore_state
.LBB1238:
.LBB1236:
.LBB1216:
.LBB1217:
	.loc 2 26 0
	movl	$0, (%esi)
.LVL149:
	movl	$0, 4(%esi)
	.loc 2 27 0
	subl	$12, %esp
	.cfi_remember_state
	.cfi_def_cfa_offset 92
	.loc 2 26 0
	movl	$0, 8(%esi)
	.loc 2 27 0
	leal	.LC2@GOTOFF(%ebx), %edi
	jmp	.L97
.LVL150:
	.p2align 4,,10
	.p2align 3
.L83:
	.cfi_restore_state
.LBE1217:
.LBE1216:
.LBB1218:
.LBB1219:
	.loc 2 26 0
	movl	$0, (%esi)
.LVL151:
	movl	$0, 4(%esi)
	.loc 2 27 0
	subl	$12, %esp
	.cfi_remember_state
	.cfi_def_cfa_offset 92
	.loc 2 26 0
	movl	$0, 8(%esi)
	.loc 2 27 0
	leal	.LC3@GOTOFF(%ebx), %edi
	jmp	.L97
.LVL152:
	.p2align 4,,10
	.p2align 3
.L84:
	.cfi_restore_state
.LBE1219:
.LBE1218:
.LBB1220:
.LBB1221:
	.loc 2 26 0
	movl	$0, (%esi)
.LVL153:
	movl	$0, 4(%esi)
	.loc 2 27 0
	subl	$12, %esp
	.cfi_remember_state
	.cfi_def_cfa_offset 92
	.loc 2 26 0
	movl	$0, 8(%esi)
	.loc 2 27 0
	leal	.LC4@GOTOFF(%ebx), %edi
	jmp	.L97
.LVL154:
	.p2align 4,,10
	.p2align 3
.L85:
	.cfi_restore_state
.LBE1221:
.LBE1220:
.LBB1222:
.LBB1223:
	.loc 2 26 0
	movl	$0, (%esi)
.LVL155:
	movl	$0, 4(%esi)
	.loc 2 27 0
	subl	$12, %esp
	.cfi_remember_state
	.cfi_def_cfa_offset 92
	.loc 2 26 0
	movl	$0, 8(%esi)
	.loc 2 27 0
	leal	.LC5@GOTOFF(%ebx), %edi
	jmp	.L97
.LVL156:
	.p2align 4,,10
	.p2align 3
.L86:
	.cfi_restore_state
.LBE1223:
.LBE1222:
.LBB1224:
.LBB1225:
	.loc 2 26 0
	movl	$0, (%esi)
.LVL157:
	movl	$0, 4(%esi)
	.loc 2 27 0
	subl	$12, %esp
	.cfi_remember_state
	.cfi_def_cfa_offset 92
	.loc 2 26 0
	movl	$0, 8(%esi)
	.loc 2 27 0
	leal	.LC6@GOTOFF(%ebx), %edi
	jmp	.L97
.LVL158:
	.p2align 4,,10
	.p2align 3
.L87:
	.cfi_restore_state
.LBE1225:
.LBE1224:
.LBB1226:
.LBB1227:
	.loc 2 26 0
	movl	$0, (%esi)
.LVL159:
	movl	$0, 4(%esi)
	.loc 2 27 0
	subl	$12, %esp
	.cfi_remember_state
	.cfi_def_cfa_offset 92
	.loc 2 26 0
	movl	$0, 8(%esi)
	.loc 2 27 0
	leal	.LC7@GOTOFF(%ebx), %edi
	jmp	.L97
.LVL160:
	.p2align 4,,10
	.p2align 3
.L88:
	.cfi_restore_state
.LBE1227:
.LBE1226:
.LBB1228:
.LBB1229:
	.loc 2 26 0
	movl	$0, (%esi)
.LVL161:
	movl	$0, 4(%esi)
	.loc 2 27 0
	subl	$12, %esp
	.cfi_remember_state
	.cfi_def_cfa_offset 92
	.loc 2 26 0
	movl	$0, 8(%esi)
	.loc 2 27 0
	leal	.LC1@GOTOFF(%ebx), %edi
	jmp	.L97
.LVL162:
	.p2align 4,,10
	.p2align 3
.L89:
	.cfi_restore_state
.LBE1229:
.LBE1228:
.LBB1230:
.LBB1231:
	.loc 2 26 0
	movl	$0, (%esi)
.LVL163:
	movl	$0, 4(%esi)
	.loc 2 27 0
	subl	$12, %esp
	.cfi_remember_state
	.cfi_def_cfa_offset 92
	.loc 2 26 0
	movl	$0, 8(%esi)
	.loc 2 27 0
	leal	.LC8@GOTOFF(%ebx), %edi
	jmp	.L97
.LVL164:
	.p2align 4,,10
	.p2align 3
.L90:
	.cfi_restore_state
.LBE1231:
.LBE1230:
.LBB1232:
.LBB1233:
	.loc 2 26 0
	movl	$0, (%esi)
.LVL165:
	movl	$0, 4(%esi)
	.loc 2 27 0
	subl	$12, %esp
	.cfi_remember_state
	.cfi_def_cfa_offset 92
	.loc 2 26 0
	movl	$0, 8(%esi)
	.loc 2 27 0
	leal	.LC9@GOTOFF(%ebx), %edi
	jmp	.L97
.LVL166:
	.p2align 4,,10
	.p2align 3
.L79:
	.cfi_restore_state
.LBE1233:
.LBE1232:
.LBB1234:
.LBB1215:
	.loc 2 26 0
	movl	$0, (%esi)
.LVL167:
	movl	$0, 4(%esi)
	.loc 2 27 0
	subl	$12, %esp
	.cfi_remember_state
	.cfi_def_cfa_offset 92
	.loc 2 26 0
	movl	$0, 8(%esi)
	.loc 2 27 0
	leal	.LC12@GOTOFF(%ebx), %edi
	jmp	.L97
.LVL168:
	.p2align 4,,10
	.p2align 3
.L98:
	.cfi_restore_state
.LBE1215:
.LBE1234:
.LBE1236:
.LBE1238:
.LBB1239:
.LBB1240:
	.loc 2 26 0
	movl	$0, (%esi)
	movl	$0, 4(%esi)
	.loc 2 27 0
	subl	$12, %esp
	.cfi_remember_state
	.cfi_def_cfa_offset 92
	.loc 2 26 0
	movl	$0, 8(%esi)
	.loc 2 27 0
	leal	.LC0@GOTOFF(%ebx), %edi
	jmp	.L97
.LVL169:
.L94:
	.cfi_restore_state
.LBE1240:
.LBE1239:
.LBB1241:
.LBB1237:
.LBB1235:
.LBB1210:
.LBB1192:
	.loc 2 29 0
	movl	%ebp, %edi
.LVL170:
	jmp	.L92
.LBE1192:
.LBE1210:
.LBE1235:
.LBE1237:
.LBE1241:
	.cfi_endproc
.LFE201:
	.size	_ZN7Runtime9typeToStrEPh, .-_ZN7Runtime9typeToStrEPh
	.section	.rodata.str1.1
.LC13:
	.string	"\tat: "
.LC14:
	.string	"["
.LC15:
	.string	"] "
.LC16:
	.string	"[kernel] "
.LC17:
	.string	" "
.LC18:
	.string	"("
.LC19:
	.string	")\n"
	.text
	.align 2
	.p2align 4,,15
	.globl	_ZN7Runtime20GetManagedStackTraceEv
	.type	_ZN7Runtime20GetManagedStackTraceEv, @function
_ZN7Runtime20GetManagedStackTraceEv:
.LFB199:
	.loc 1 331 0
	.cfi_startproc
.LVL171:
	pushl	%ebp
	.cfi_def_cfa_offset 8
	.cfi_offset 5, -8
	pushl	%edi
	.cfi_def_cfa_offset 12
	.cfi_offset 7, -12
	pushl	%esi
	.cfi_def_cfa_offset 16
	.cfi_offset 6, -16
	pushl	%ebx
	.cfi_def_cfa_offset 20
	.cfi_offset 3, -20
	call	__x86.get_pc_thunk.bx
	addl	$_GLOBAL_OFFSET_TABLE_, %ebx
	subl	$88, %esp
	.cfi_def_cfa_offset 108
	.loc 1 331 0
	movl	108(%esp), %esi
.LVL172:
.LBB1320:
.LBB1321:
	.loc 2 27 0
	leal	.LC0@GOTOFF(%ebx), %edi
	.loc 2 26 0
	movl	$0, (%esi)
	movl	$0, 4(%esi)
	movl	$0, 8(%esi)
	.loc 2 27 0
	pushl	%edi
	.cfi_def_cfa_offset 112
	call	strlen@PLT
.LVL173:
	movl	%eax, 8(%esi)
	.loc 2 28 0
	addl	$1, %eax
	movl	%eax, 4(%esi)
	.loc 2 29 0
	movl	%eax, (%esp)
	call	kmalloc@PLT
.LVL174:
	movl	%eax, (%esi)
	.loc 2 30 0
	popl	%edx
	.cfi_def_cfa_offset 108
	popl	%ecx
	.cfi_def_cfa_offset 104
	pushl	%edi
	.cfi_def_cfa_offset 108
	pushl	%eax
	.cfi_def_cfa_offset 112
	call	strcpy@PLT
.LVL175:
.LBE1321:
.LBE1320:
.LBB1322:
.LBB1323:
.LBB1324:
	.loc 3 127 0
	movl	116(%esp), %edi
	movl	116(%esp), %eax
	movl	504(%edi), %edx
	movl	500(%eax), %eax
.LVL176:
	leal	(%edx,%edx,2), %edx
	leal	(%eax,%edx,4), %edi
	leal	.LC13@GOTOFF(%ebx), %edx
	movl	%edi, 60(%esp)
.LVL177:
.LBE1324:
.LBE1323:
	.loc 1 335 0
	addl	$16, %esp
	.cfi_def_cfa_offset 96
	cmpl	%edi, %eax
	movl	%edx, 36(%esp)
.LBB1325:
	.loc 1 345 0
	leal	52(%esp), %edx
	movl	%eax, 24(%esp)
	movl	%edx, 12(%esp)
.LBB1326:
.LBB1327:
.LBB1328:
.LBB1329:
	.loc 2 80 0
	leal	.LC17@GOTOFF(%ebx), %edx
	movl	%edx, 8(%esp)
.LBE1329:
.LBE1328:
.LBE1327:
.LBE1326:
.LBE1325:
	.loc 1 335 0
	je	.L99
.LVL178:
	.p2align 4,,10
	.p2align 3
.L114:
.LBB1430:
.LBB1338:
.LBB1339:
	.loc 2 80 0
	subl	$12, %esp
	.cfi_def_cfa_offset 108
	pushl	48(%esp)
	.cfi_def_cfa_offset 112
	call	strlen@PLT
.LVL179:
	movl	%eax, %ebp
.LVL180:
	.loc 2 81 0
	movl	4(%esi), %eax
.LVL181:
	addl	%ebp, %eax
	movl	%eax, (%esp)
	call	kmalloc@PLT
.LVL182:
	movl	%eax, %edi
.LVL183:
	.loc 2 82 0
	popl	%eax
	.cfi_def_cfa_offset 108
.LVL184:
	popl	%edx
	.cfi_def_cfa_offset 104
	pushl	(%esi)
	.cfi_def_cfa_offset 108
	pushl	%edi
	.cfi_def_cfa_offset 112
	call	strcpy@PLT
.LVL185:
	.loc 2 83 0
	popl	%ecx
	.cfi_def_cfa_offset 108
	popl	%eax
	.cfi_def_cfa_offset 104
	movl	8(%esi), %eax
	pushl	44(%esp)
	.cfi_def_cfa_offset 108
	addl	%edi, %eax
	pushl	%eax
	.cfi_def_cfa_offset 112
	call	strcpy@PLT
.LVL186:
	.loc 2 84 0
	popl	%eax
	.cfi_def_cfa_offset 108
	pushl	(%esi)
	.cfi_def_cfa_offset 112
	call	kfree@PLT
.LVL187:
.LBE1339:
.LBE1338:
	.loc 1 338 0
	movl	40(%esp), %eax
.LBB1343:
.LBB1340:
	.loc 2 85 0
	movl	%edi, (%esi)
	.loc 2 86 0
	movl	4(%esi), %edi
.LVL188:
.LBE1340:
.LBE1343:
	.loc 1 338 0
	movl	(%eax), %eax
.LBB1344:
.LBB1341:
	.loc 2 86 0
	addl	%ebp, %edi
	.loc 2 87 0
	addl	8(%esi), %ebp
.LVL189:
	.loc 2 86 0
	movl	%edi, 4(%esi)
.LBE1341:
.LBE1344:
	.loc 1 338 0
	movl	%eax, 20(%esp)
	.loc 1 339 0
	addl	$16, %esp
	.cfi_def_cfa_offset 96
	testl	%eax, %eax
.LBB1345:
.LBB1342:
	.loc 2 87 0
	movl	%ebp, 8(%esi)
.LVL190:
.LBE1342:
.LBE1345:
	.loc 1 339 0
	je	.L101
	.loc 1 341 0
	testb	$1, 296(%eax)
	jne	.L102
.LBB1346:
.LBB1347:
.LBB1348:
.LBB1349:
	.loc 2 27 0
	leal	.LC14@GOTOFF(%ebx), %ecx
	subl	$12, %esp
	.cfi_def_cfa_offset 108
.LBE1349:
.LBE1348:
.LBE1347:
.LBE1346:
	.loc 1 342 0
	movl	304(%eax), %edi
.LVL191:
.LBB1358:
.LBB1356:
.LBB1351:
.LBB1350:
	.loc 2 27 0
	pushl	%ecx
	.cfi_def_cfa_offset 112
	movl	%ecx, 32(%esp)
	call	strlen@PLT
.LVL192:
	.loc 2 28 0
	movl	%eax, 44(%esp)
	addl	$1, %eax
	.loc 2 29 0
	movl	%eax, 36(%esp)
	movl	%eax, (%esp)
	call	kmalloc@PLT
.LVL193:
	movl	%eax, %ebp
	.loc 2 30 0
	popl	%eax
	.cfi_def_cfa_offset 108
	popl	%edx
	.cfi_def_cfa_offset 104
	movl	24(%esp), %ecx
	pushl	%ecx
	.cfi_def_cfa_offset 108
	pushl	%ebp
	.cfi_def_cfa_offset 112
	call	strcpy@PLT
.LVL194:
.LBE1350:
.LBE1351:
.LBB1352:
.LBB1353:
	.loc 2 68 0
	movl	36(%esp), %eax
	addl	68(%edi), %eax
	movl	%eax, (%esp)
	call	kmalloc@PLT
.LVL195:
	.loc 2 69 0
	popl	%ecx
	.cfi_def_cfa_offset 108
	popl	%edx
	.cfi_def_cfa_offset 104
	pushl	%ebp
	.cfi_def_cfa_offset 108
	movl	%eax, 28(%esp)
	pushl	%eax
	.cfi_def_cfa_offset 112
	call	strcpy@PLT
.LVL196:
	.loc 2 70 0
	popl	%ecx
	.cfi_def_cfa_offset 108
	popl	%eax
	.cfi_def_cfa_offset 104
	pushl	60(%edi)
	.cfi_def_cfa_offset 108
	movl	28(%esp), %eax
	addl	40(%esp), %eax
	pushl	%eax
	.cfi_def_cfa_offset 112
	call	strcpy@PLT
.LVL197:
	.loc 2 71 0
	movl	%ebp, (%esp)
	call	kfree@PLT
.LVL198:
	.loc 2 73 0
	movl	68(%edi), %ecx
	movl	36(%esp), %edi
.LVL199:
	addl	%ecx, %edi
	.loc 2 74 0
	addl	44(%esp), %ecx
.LBE1353:
.LBE1352:
.LBE1356:
.LBE1358:
.LBB1359:
.LBB1360:
.LBB1361:
.LBB1362:
	.loc 2 37 0
	movl	%edi, (%esp)
.LBE1362:
.LBE1361:
.LBE1360:
.LBE1359:
.LBB1368:
.LBB1357:
.LBB1355:
.LBB1354:
	.loc 2 74 0
	movl	%ecx, 36(%esp)
.LBE1354:
.LBE1355:
.LBE1357:
.LBE1368:
.LBB1369:
.LBB1367:
.LBB1364:
.LBB1363:
	.loc 2 37 0
	call	kmalloc@PLT
.LVL200:
	movl	%eax, %ebp
	.loc 2 38 0
	popl	%eax
	.cfi_def_cfa_offset 108
	popl	%edx
	.cfi_def_cfa_offset 104
	pushl	24(%esp)
	.cfi_def_cfa_offset 108
	pushl	%ebp
	.cfi_def_cfa_offset 112
	call	strcpy@PLT
.LVL201:
.LBE1363:
.LBE1364:
.LBB1365:
.LBB1366:
	.loc 2 80 0
	leal	.LC15@GOTOFF(%ebx), %edx
	movl	%edx, (%esp)
	movl	%edx, 48(%esp)
	call	strlen@PLT
.LVL202:
	.loc 2 81 0
	addl	%eax, %edi
	movl	%eax, 44(%esp)
	movl	%edi, (%esp)
	call	kmalloc@PLT
.LVL203:
	.loc 2 82 0
	popl	%ecx
	.cfi_def_cfa_offset 108
	.loc 2 81 0
	movl	%eax, %edi
.LVL204:
	.loc 2 82 0
	popl	%eax
	.cfi_def_cfa_offset 104
.LVL205:
	pushl	%ebp
	.cfi_def_cfa_offset 108
	pushl	%edi
	.cfi_def_cfa_offset 112
	call	strcpy@PLT
.LVL206:
	.loc 2 83 0
	popl	%eax
	.cfi_def_cfa_offset 108
	popl	%edx
	.cfi_def_cfa_offset 104
	movl	40(%esp), %edx
	pushl	%edx
	.cfi_def_cfa_offset 108
	movl	32(%esp), %ecx
	leal	(%edi,%ecx), %eax
	pushl	%eax
	.cfi_def_cfa_offset 112
	call	strcpy@PLT
.LVL207:
	.loc 2 84 0
	movl	%ebp, (%esp)
	call	kfree@PLT
.LVL208:
	.loc 2 87 0
	movl	36(%esp), %edx
	movl	44(%esp), %ecx
	addl	%ecx, %edx
.LVL209:
.LBE1366:
.LBE1365:
.LBE1367:
.LBE1369:
.LBB1370:
.LBB1371:
	.loc 2 68 0
	movl	%edx, %eax
	addl	4(%esi), %eax
	movl	%edx, 36(%esp)
	movl	%eax, (%esp)
	call	kmalloc@PLT
.LVL210:
	movl	%eax, %ebp
.LVL211:
	.loc 2 69 0
	popl	%ecx
	.cfi_def_cfa_offset 108
	popl	%eax
	.cfi_def_cfa_offset 104
.LVL212:
	pushl	(%esi)
	.cfi_def_cfa_offset 108
	pushl	%ebp
	.cfi_def_cfa_offset 112
	call	strcpy@PLT
.LVL213:
	.loc 2 70 0
	popl	%eax
	.cfi_def_cfa_offset 108
	movl	8(%esi), %eax
	popl	%edx
	.cfi_def_cfa_offset 104
	pushl	%edi
	.cfi_def_cfa_offset 108
	addl	%ebp, %eax
	pushl	%eax
	.cfi_def_cfa_offset 112
	call	strcpy@PLT
.LVL214:
	.loc 2 71 0
	popl	%ecx
	.cfi_def_cfa_offset 108
	pushl	(%esi)
	.cfi_def_cfa_offset 112
	call	kfree@PLT
.LVL215:
	.loc 2 73 0
	movl	36(%esp), %edx
	addl	%edx, 4(%esi)
	.loc 2 74 0
	addl	%edx, 8(%esi)
.LVL216:
	.loc 2 72 0
	movl	%ebp, (%esi)
.LBE1371:
.LBE1370:
.LBB1372:
.LBB1373:
	.loc 2 43 0
	movl	%edi, (%esp)
	call	kfree@PLT
.LVL217:
.LBE1373:
.LBE1372:
.LBB1374:
.LBB1375:
	popl	%edi
	.cfi_def_cfa_offset 108
	pushl	28(%esp)
	.cfi_def_cfa_offset 112
	call	kfree@PLT
.LVL218:
.LBE1375:
.LBE1374:
	addl	$16, %esp
	.cfi_def_cfa_offset 96
.LVL219:
.L103:
	.loc 1 345 0
	movl	4(%esp), %eax
	subl	$4, %esp
	.cfi_def_cfa_offset 100
	leal	22(%eax), %edi
	movl	%edi, 32(%esp)
	movl	%eax, 8(%esp)
.LVL220:
	pushl	292(%eax)
	.cfi_def_cfa_offset 104
	pushl	108(%esp)
	.cfi_def_cfa_offset 108
	pushl	24(%esp)
	.cfi_def_cfa_offset 112
	call	_ZN7Runtime9typeToStrEPh
	.cfi_def_cfa_offset 108
.LVL221:
.LBB1376:
.LBB1336:
.LBB1332:
.LBB1333:
	.loc 2 35 0
	movl	72(%esp), %edx
	.loc 2 36 0
	movl	68(%esp), %ebp
	.loc 2 35 0
	movl	%edx, 28(%esp)
	.loc 2 37 0
	pushl	%ebp
	.cfi_def_cfa_offset 112
	call	kmalloc@PLT
.LVL222:
	movl	%eax, %edi
	.loc 2 38 0
	popl	%eax
	.cfi_def_cfa_offset 108
	popl	%edx
	.cfi_def_cfa_offset 104
	pushl	60(%esp)
	.cfi_def_cfa_offset 108
	pushl	%edi
	.cfi_def_cfa_offset 112
	call	strcpy@PLT
.LVL223:
.LBE1333:
.LBE1332:
.LBB1334:
.LBB1330:
	.loc 2 80 0
	popl	%ecx
	.cfi_def_cfa_offset 108
	pushl	20(%esp)
	.cfi_def_cfa_offset 112
	call	strlen@PLT
.LVL224:
	.loc 2 81 0
	addl	%eax, %ebp
	movl	%eax, 48(%esp)
	movl	%ebp, (%esp)
	call	kmalloc@PLT
.LVL225:
	.loc 2 82 0
	popl	%edx
	.cfi_def_cfa_offset 108
	popl	%ecx
	.cfi_def_cfa_offset 104
	pushl	%edi
	.cfi_def_cfa_offset 108
	movl	%eax, 32(%esp)
	pushl	%eax
	.cfi_def_cfa_offset 112
	call	strcpy@PLT
.LVL226:
	.loc 2 83 0
	popl	%eax
	.cfi_def_cfa_offset 108
	popl	%edx
	.cfi_def_cfa_offset 104
	pushl	16(%esp)
	.cfi_def_cfa_offset 108
	movl	32(%esp), %eax
	addl	28(%esp), %eax
	pushl	%eax
	.cfi_def_cfa_offset 112
	call	strcpy@PLT
.LVL227:
	.loc 2 84 0
	movl	%edi, (%esp)
	call	kfree@PLT
.LVL228:
	.loc 2 87 0
	movl	48(%esp), %edx
	addl	32(%esp), %edx
.LBE1330:
.LBE1334:
.LBE1336:
.LBE1376:
.LBB1377:
.LBB1378:
.LBB1379:
.LBB1380:
	.loc 2 37 0
	movl	%ebp, (%esp)
.LBE1380:
.LBE1379:
.LBE1378:
.LBE1377:
.LBB1389:
.LBB1337:
.LBB1335:
.LBB1331:
	.loc 2 87 0
	movl	%edx, 48(%esp)
.LBE1331:
.LBE1335:
.LBE1337:
.LBE1389:
.LBB1390:
.LBB1387:
.LBB1382:
.LBB1381:
	.loc 2 37 0
	call	kmalloc@PLT
.LVL229:
	.loc 2 38 0
	popl	%ecx
	.cfi_def_cfa_offset 108
	.loc 2 37 0
	movl	%eax, %edi
	.loc 2 38 0
	popl	%eax
	.cfi_def_cfa_offset 104
	pushl	28(%esp)
	.cfi_def_cfa_offset 108
	pushl	%edi
	.cfi_def_cfa_offset 112
	call	strcpy@PLT
.LVL230:
.LBE1381:
.LBE1382:
.LBB1383:
.LBB1384:
	.loc 2 80 0
	popl	%eax
	.cfi_def_cfa_offset 108
	pushl	40(%esp)
	.cfi_def_cfa_offset 112
	call	strlen@PLT
.LVL231:
	.loc 2 81 0
	addl	%eax, %ebp
	movl	%eax, 56(%esp)
	movl	%ebp, (%esp)
	call	kmalloc@PLT
.LVL232:
	.loc 2 82 0
	popl	%edx
	.cfi_def_cfa_offset 108
	popl	%ecx
	.cfi_def_cfa_offset 104
	pushl	%edi
	.cfi_def_cfa_offset 108
	movl	%eax, 28(%esp)
	pushl	%eax
	.cfi_def_cfa_offset 112
	call	strcpy@PLT
.LVL233:
	.loc 2 83 0
	popl	%eax
	.cfi_def_cfa_offset 108
	popl	%edx
	.cfi_def_cfa_offset 104
	pushl	36(%esp)
	.cfi_def_cfa_offset 108
	movl	28(%esp), %eax
	addl	44(%esp), %eax
	pushl	%eax
	.cfi_def_cfa_offset 112
	call	strcpy@PLT
.LVL234:
	.loc 2 84 0
	movl	%edi, (%esp)
	call	kfree@PLT
.LVL235:
	.loc 2 87 0
	movl	56(%esp), %ecx
	addl	48(%esp), %ecx
.LBE1384:
.LBE1383:
.LBE1387:
.LBE1390:
.LBB1391:
.LBB1392:
.LBB1393:
.LBB1394:
	.loc 2 37 0
	movl	%ebp, (%esp)
.LBE1394:
.LBE1393:
.LBE1392:
.LBE1391:
.LBB1400:
.LBB1388:
.LBB1386:
.LBB1385:
	.loc 2 87 0
	movl	%ecx, 44(%esp)
.LBE1385:
.LBE1386:
.LBE1388:
.LBE1400:
.LBB1401:
.LBB1399:
.LBB1396:
.LBB1395:
	.loc 2 37 0
	call	kmalloc@PLT
.LVL236:
	.loc 2 38 0
	popl	%ecx
	.cfi_def_cfa_offset 108
	.loc 2 37 0
	movl	%eax, %edi
	.loc 2 38 0
	popl	%eax
	.cfi_def_cfa_offset 104
	pushl	24(%esp)
	.cfi_def_cfa_offset 108
	pushl	%edi
	.cfi_def_cfa_offset 112
	call	strcpy@PLT
.LVL237:
.LBE1395:
.LBE1396:
.LBB1397:
.LBB1398:
	.loc 2 80 0
	leal	.LC18@GOTOFF(%ebx), %ecx
	movl	%ecx, (%esp)
	movl	%ecx, 56(%esp)
	call	strlen@PLT
.LVL238:
	.loc 2 81 0
	addl	%eax, %ebp
	movl	%eax, 48(%esp)
	movl	%ebp, (%esp)
	call	kmalloc@PLT
.LVL239:
	movl	%eax, %ebp
.LVL240:
	.loc 2 82 0
	popl	%eax
	.cfi_def_cfa_offset 108
.LVL241:
	popl	%edx
	.cfi_def_cfa_offset 104
	pushl	%edi
	.cfi_def_cfa_offset 108
	pushl	%ebp
	.cfi_def_cfa_offset 112
	call	strcpy@PLT
.LVL242:
	.loc 2 83 0
	popl	%ecx
	.cfi_def_cfa_offset 108
	popl	%eax
	.cfi_def_cfa_offset 104
	movl	48(%esp), %ecx
	pushl	%ecx
	.cfi_def_cfa_offset 108
	movl	40(%esp), %ecx
	leal	0(%ebp,%ecx), %eax
	pushl	%eax
	.cfi_def_cfa_offset 112
	call	strcpy@PLT
.LVL243:
	.loc 2 84 0
	movl	%edi, (%esp)
	call	kfree@PLT
.LVL244:
	.loc 2 87 0
	movl	48(%esp), %edx
	addl	44(%esp), %edx
.LVL245:
.LBE1398:
.LBE1397:
.LBE1399:
.LBE1401:
.LBB1402:
.LBB1403:
	.loc 2 68 0
	movl	%edx, %edi
	addl	4(%esi), %edi
	movl	%edx, 44(%esp)
	movl	%edi, (%esp)
	call	kmalloc@PLT
.LVL246:
	movl	%eax, %edi
.LVL247:
	.loc 2 69 0
	popl	%eax
	.cfi_def_cfa_offset 108
.LVL248:
	popl	%edx
	.cfi_def_cfa_offset 104
	pushl	(%esi)
	.cfi_def_cfa_offset 108
	pushl	%edi
	.cfi_def_cfa_offset 112
	call	strcpy@PLT
.LVL249:
	.loc 2 70 0
	movl	8(%esi), %edx
	popl	%ecx
	.cfi_def_cfa_offset 108
	popl	%eax
	.cfi_def_cfa_offset 104
	addl	%edi, %edx
	pushl	%ebp
	.cfi_def_cfa_offset 108
	pushl	%edx
	.cfi_def_cfa_offset 112
	call	strcpy@PLT
.LVL250:
	.loc 2 71 0
	popl	%eax
	.cfi_def_cfa_offset 108
	pushl	(%esi)
	.cfi_def_cfa_offset 112
	call	kfree@PLT
.LVL251:
	.loc 2 73 0
	movl	44(%esp), %edx
	addl	%edx, 4(%esi)
	.loc 2 74 0
	addl	%edx, 8(%esi)
.LVL252:
	.loc 2 72 0
	movl	%edi, (%esi)
.LBE1403:
.LBE1402:
.LBB1404:
	.loc 1 346 0
	xorl	%edi, %edi
.LBE1404:
.LBB1411:
.LBB1412:
	.loc 2 43 0
	movl	%ebp, (%esp)
	call	kfree@PLT
.LVL253:
.LBE1412:
.LBE1411:
.LBB1413:
.LBB1414:
	popl	%eax
	.cfi_def_cfa_offset 108
	pushl	28(%esp)
	.cfi_def_cfa_offset 112
	call	kfree@PLT
.LVL254:
.LBE1414:
.LBE1413:
.LBB1415:
.LBB1416:
	popl	%eax
	.cfi_def_cfa_offset 108
	pushl	32(%esp)
	.cfi_def_cfa_offset 112
	call	kfree@PLT
.LVL255:
.LBE1416:
.LBE1415:
.LBB1417:
.LBB1418:
	popl	%eax
	.cfi_def_cfa_offset 108
	pushl	64(%esp)
	.cfi_def_cfa_offset 112
	call	kfree@PLT
.LVL256:
.LBE1418:
.LBE1417:
.LBB1419:
	.loc 1 346 0
	addl	$16, %esp
	.cfi_def_cfa_offset 96
	movl	4(%esp), %eax
	movl	104(%eax), %eax
	testl	%eax, %eax
	je	.L106
.LVL257:
	.p2align 4,,10
	.p2align 3
.L112:
	.loc 1 348 0
	subl	$4, %esp
	.cfi_def_cfa_offset 100
	leal	(%edi,%edi,2), %eax
	movl	8(%esp), %ecx
	pushl	116(%ecx,%eax,4)
	.cfi_def_cfa_offset 104
	pushl	108(%esp)
	.cfi_def_cfa_offset 108
	pushl	24(%esp)
	.cfi_def_cfa_offset 112
	call	_ZN7Runtime9typeToStrEPh
	.cfi_def_cfa_offset 108
.LVL258:
.LBB1405:
.LBB1406:
	.loc 2 68 0
	movl	72(%esp), %eax
	addl	4(%esi), %eax
	pushl	%eax
	.cfi_def_cfa_offset 112
	call	kmalloc@PLT
.LVL259:
	movl	%eax, %ebp
.LVL260:
	.loc 2 69 0
	popl	%eax
	.cfi_def_cfa_offset 108
.LVL261:
	popl	%edx
	.cfi_def_cfa_offset 104
	pushl	(%esi)
	.cfi_def_cfa_offset 108
	pushl	%ebp
	.cfi_def_cfa_offset 112
	call	strcpy@PLT
.LVL262:
	.loc 2 70 0
	popl	%ecx
	.cfi_def_cfa_offset 108
	popl	%eax
	.cfi_def_cfa_offset 104
	movl	8(%esi), %eax
	pushl	60(%esp)
	.cfi_def_cfa_offset 108
	addl	%ebp, %eax
	pushl	%eax
	.cfi_def_cfa_offset 112
	call	strcpy@PLT
.LVL263:
	.loc 2 71 0
	popl	%eax
	.cfi_def_cfa_offset 108
	pushl	(%esi)
	.cfi_def_cfa_offset 112
	call	kfree@PLT
.LVL264:
	.loc 2 73 0
	movl	76(%esp), %eax
	addl	%eax, 4(%esi)
	.loc 2 74 0
	addl	%eax, 8(%esi)
.LVL265:
	.loc 2 72 0
	movl	%ebp, (%esi)
.LBE1406:
.LBE1405:
.LBB1407:
.LBB1408:
	.loc 2 43 0
	popl	%eax
	.cfi_def_cfa_offset 108
	pushl	64(%esp)
	.cfi_def_cfa_offset 112
	call	kfree@PLT
.LVL266:
.LBE1408:
.LBE1407:
	.loc 1 349 0
	movl	20(%esp), %ebp
	addl	$16, %esp
	.cfi_def_cfa_offset 96
	movl	104(%ebp), %eax
	leal	-1(%eax), %edx
	cmpl	%edi, %edx
	je	.L105
.LVL267:
.LBB1409:
.LBB1410:
	.loc 2 80 0
	subl	$12, %esp
	.cfi_def_cfa_offset 108
	pushl	20(%esp)
	.cfi_def_cfa_offset 112
	call	strlen@PLT
.LVL268:
	.loc 2 81 0
	movl	%eax, 36(%esp)
	addl	4(%esi), %eax
.LVL269:
	movl	%eax, (%esp)
	call	kmalloc@PLT
.LVL270:
	movl	%eax, %ecx
.LVL271:
	.loc 2 82 0
	popl	%eax
	.cfi_def_cfa_offset 108
.LVL272:
	popl	%edx
	.cfi_def_cfa_offset 104
	pushl	(%esi)
	.cfi_def_cfa_offset 108
	pushl	%ecx
	.cfi_def_cfa_offset 112
	movl	%ecx, 32(%esp)
	call	strcpy@PLT
.LVL273:
	.loc 2 83 0
	popl	%ecx
	.cfi_def_cfa_offset 108
	popl	%eax
	.cfi_def_cfa_offset 104
	movl	8(%esi), %eax
	pushl	16(%esp)
	.cfi_def_cfa_offset 108
	movl	28(%esp), %ecx
	addl	%ecx, %eax
	pushl	%eax
	.cfi_def_cfa_offset 112
	call	strcpy@PLT
.LVL274:
	.loc 2 84 0
	popl	%eax
	.cfi_def_cfa_offset 108
	pushl	(%esi)
	.cfi_def_cfa_offset 112
	call	kfree@PLT
.LVL275:
	.loc 2 86 0
	movl	36(%esp), %edx
	.loc 2 85 0
	movl	32(%esp), %ecx
	addl	$16, %esp
	.cfi_def_cfa_offset 96
	.loc 2 86 0
	addl	%edx, 4(%esi)
	.loc 2 87 0
	addl	%edx, 8(%esi)
	movl	104(%ebp), %eax
	.loc 2 85 0
	movl	%ecx, (%esi)
.LVL276:
.L105:
.LBE1410:
.LBE1409:
	.loc 1 346 0 discriminator 2
	addl	$1, %edi
.LVL277:
	cmpl	%eax, %edi
	jb	.L112
.LVL278:
.L106:
.LBE1419:
.LBB1420:
.LBB1421:
	.loc 2 80 0
	leal	.LC19@GOTOFF(%ebx), %edx
	subl	$12, %esp
	.cfi_def_cfa_offset 108
	pushl	%edx
	.cfi_def_cfa_offset 112
	movl	%edx, 20(%esp)
	call	strlen@PLT
.LVL279:
	movl	%eax, %edi
.LVL280:
	.loc 2 81 0
	movl	4(%esi), %eax
.LVL281:
	addl	%edi, %eax
	movl	%eax, (%esp)
	call	kmalloc@PLT
.LVL282:
	movl	%eax, %ebp
.LVL283:
	.loc 2 82 0
	popl	%eax
	.cfi_def_cfa_offset 108
.LVL284:
	popl	%edx
	.cfi_def_cfa_offset 104
	pushl	(%esi)
	.cfi_def_cfa_offset 108
	pushl	%ebp
	.cfi_def_cfa_offset 112
	call	strcpy@PLT
.LVL285:
	.loc 2 83 0
	popl	%ecx
	.cfi_def_cfa_offset 108
	popl	%eax
	.cfi_def_cfa_offset 104
	movl	8(%esi), %eax
	movl	12(%esp), %edx
	addl	%ebp, %eax
	pushl	%edx
	.cfi_def_cfa_offset 108
	pushl	%eax
	.cfi_def_cfa_offset 112
	call	strcpy@PLT
.LVL286:
	.loc 2 84 0
	popl	%eax
	.cfi_def_cfa_offset 108
	pushl	(%esi)
	.cfi_def_cfa_offset 112
	call	kfree@PLT
.LVL287:
	.loc 2 86 0
	addl	%edi, 4(%esi)
	.loc 2 87 0
	addl	%edi, 8(%esi)
	addl	$16, %esp
	.cfi_def_cfa_offset 96
	.loc 2 85 0
	movl	%ebp, (%esi)
.LVL288:
.L101:
	addl	$12, 24(%esp)
.LVL289:
	movl	24(%esp), %eax
.LBE1421:
.LBE1420:
.LBE1430:
	.loc 1 335 0 discriminator 3
	cmpl	%eax, 44(%esp)
	jne	.L114
.LVL290:
.L99:
.LBE1322:
	.loc 1 355 0
	addl	$76, %esp
	.cfi_remember_state
	.cfi_def_cfa_offset 20
	movl	%esi, %eax
	popl	%ebx
	.cfi_restore 3
	.cfi_def_cfa_offset 16
	popl	%esi
	.cfi_restore 6
	.cfi_def_cfa_offset 12
	popl	%edi
	.cfi_restore 7
	.cfi_def_cfa_offset 8
	popl	%ebp
	.cfi_restore 5
	.cfi_def_cfa_offset 4
	ret	$4
.LVL291:
	.p2align 4,,10
	.p2align 3
.L102:
	.cfi_restore_state
.LBB1432:
.LBB1431:
.LBB1422:
.LBB1423:
.LBB1424:
.LBB1425:
	.loc 2 37 0
	subl	$12, %esp
	.cfi_def_cfa_offset 108
	pushl	%edi
	.cfi_def_cfa_offset 112
	call	kmalloc@PLT
.LVL292:
	.loc 2 38 0
	popl	%edx
	.cfi_def_cfa_offset 108
	.loc 2 37 0
	movl	%eax, %ecx
	.loc 2 38 0
	popl	%eax
	.cfi_def_cfa_offset 104
	pushl	(%esi)
	.cfi_def_cfa_offset 108
	pushl	%ecx
	.cfi_def_cfa_offset 112
	movl	%ecx, 32(%esp)
	call	strcpy@PLT
.LVL293:
.LBE1425:
.LBE1424:
.LBB1426:
.LBB1427:
	.loc 2 80 0
	leal	.LC16@GOTOFF(%ebx), %edx
	movl	%edx, (%esp)
	movl	%edx, 36(%esp)
	call	strlen@PLT
.LVL294:
	.loc 2 81 0
	addl	%eax, %edi
	movl	%edi, (%esp)
	call	kmalloc@PLT
.LVL295:
	movl	%eax, %edi
.LVL296:
	.loc 2 82 0
	popl	%eax
	.cfi_def_cfa_offset 108
.LVL297:
	popl	%edx
	.cfi_def_cfa_offset 104
	movl	24(%esp), %ecx
	.loc 2 83 0
	addl	%edi, %ebp
	.loc 2 82 0
	pushl	%ecx
	.cfi_def_cfa_offset 108
	movl	%ecx, 28(%esp)
	pushl	%edi
	.cfi_def_cfa_offset 112
	call	strcpy@PLT
.LVL298:
	.loc 2 83 0
	popl	%ecx
	.cfi_def_cfa_offset 108
	popl	%eax
	.cfi_def_cfa_offset 104
	movl	28(%esp), %edx
	pushl	%edx
	.cfi_def_cfa_offset 108
	pushl	%ebp
	.cfi_def_cfa_offset 112
	call	strcpy@PLT
.LVL299:
	.loc 2 84 0
	movl	32(%esp), %ecx
	movl	%ecx, (%esp)
	call	kfree@PLT
.LVL300:
.LBE1427:
.LBE1426:
.LBE1423:
.LBE1422:
.LBB1428:
.LBB1429:
	.loc 2 43 0
	movl	%edi, (%esp)
	call	kfree@PLT
.LVL301:
	addl	$16, %esp
	.cfi_def_cfa_offset 96
	jmp	.L103
.LBE1429:
.LBE1428:
.LBE1431:
.LBE1432:
	.cfi_endproc
.LFE199:
	.size	_ZN7Runtime20GetManagedStackTraceEv, .-_ZN7Runtime20GetManagedStackTraceEv
	.section	.rodata.str1.1
.LC20:
	.string	"Managed code:\n"
	.text
	.align 2
	.p2align 4,,15
	.globl	_ZN7Runtime13GetStackTraceEv
	.type	_ZN7Runtime13GetStackTraceEv, @function
_ZN7Runtime13GetStackTraceEv:
.LFB197:
	.loc 1 321 0
	.cfi_startproc
.LVL302:
	pushl	%edi
	.cfi_def_cfa_offset 8
	.cfi_offset 7, -8
	pushl	%esi
	.cfi_def_cfa_offset 12
	.cfi_offset 6, -12
	pushl	%ebx
	.cfi_def_cfa_offset 16
	.cfi_offset 3, -16
	call	__x86.get_pc_thunk.bx
	addl	$_GLOBAL_OFFSET_TABLE_, %ebx
	subl	$16, %esp
	.cfi_def_cfa_offset 32
	.loc 1 322 0
	leal	4(%esp), %eax
	.loc 1 321 0
	movl	32(%esp), %esi
	.loc 1 322 0
	subl	$8, %esp
	.cfi_def_cfa_offset 40
.LBB1442:
.LBB1443:
.LBB1444:
.LBB1445:
	.loc 2 27 0
	leal	.LC20@GOTOFF(%ebx), %edi
.LBE1445:
.LBE1444:
.LBE1443:
.LBE1442:
	.loc 1 322 0
	pushl	44(%esp)
	.cfi_def_cfa_offset 44
	pushl	%eax
	.cfi_def_cfa_offset 48
	call	_ZN7Runtime20GetManagedStackTraceEv
	.cfi_def_cfa_offset 44
.LVL303:
.LBB1451:
.LBB1450:
.LBB1447:
.LBB1446:
	.loc 2 26 0
	movl	$0, (%esi)
	movl	$0, 4(%esi)
	movl	$0, 8(%esi)
	.loc 2 27 0
	pushl	%edi
	.cfi_def_cfa_offset 48
	call	strlen@PLT
.LVL304:
	movl	%eax, 8(%esi)
	.loc 2 28 0
	addl	$1, %eax
	movl	%eax, 4(%esi)
	.loc 2 29 0
	movl	%eax, (%esp)
	call	kmalloc@PLT
.LVL305:
	movl	%eax, (%esi)
	.loc 2 30 0
	popl	%edx
	.cfi_def_cfa_offset 44
	popl	%ecx
	.cfi_def_cfa_offset 40
	pushl	%edi
	.cfi_def_cfa_offset 44
	pushl	%eax
	.cfi_def_cfa_offset 48
	call	strcpy@PLT
.LVL306:
.LBE1446:
.LBE1447:
.LBB1448:
.LBB1449:
	.loc 2 68 0
	movl	28(%esp), %eax
	addl	4(%esi), %eax
	movl	%eax, (%esp)
	call	kmalloc@PLT
.LVL307:
	movl	%eax, %edi
.LVL308:
	.loc 2 69 0
	popl	%eax
	.cfi_def_cfa_offset 44
.LVL309:
	popl	%edx
	.cfi_def_cfa_offset 40
	pushl	(%esi)
	.cfi_def_cfa_offset 44
	pushl	%edi
	.cfi_def_cfa_offset 48
	call	strcpy@PLT
.LVL310:
	.loc 2 70 0
	popl	%ecx
	.cfi_def_cfa_offset 44
	popl	%eax
	.cfi_def_cfa_offset 40
	movl	8(%esi), %eax
	pushl	12(%esp)
	.cfi_def_cfa_offset 44
	addl	%edi, %eax
	pushl	%eax
	.cfi_def_cfa_offset 48
	call	strcpy@PLT
.LVL311:
	.loc 2 71 0
	popl	%eax
	.cfi_def_cfa_offset 44
	pushl	(%esi)
	.cfi_def_cfa_offset 48
	call	kfree@PLT
.LVL312:
	.loc 2 73 0
	movl	28(%esp), %eax
	addl	%eax, 4(%esi)
	.loc 2 74 0
	addl	%eax, 8(%esi)
.LVL313:
	.loc 2 72 0
	movl	%edi, (%esi)
.LBE1449:
.LBE1448:
.LBE1450:
.LBE1451:
.LBB1452:
.LBB1453:
	.loc 2 43 0
	popl	%eax
	.cfi_def_cfa_offset 44
	pushl	16(%esp)
	.cfi_def_cfa_offset 48
	call	kfree@PLT
.LVL314:
.LBE1453:
.LBE1452:
	.loc 1 323 0
	addl	$32, %esp
	.cfi_def_cfa_offset 16
	movl	%esi, %eax
	popl	%ebx
	.cfi_restore 3
	.cfi_def_cfa_offset 12
	popl	%esi
	.cfi_restore 6
	.cfi_def_cfa_offset 8
	popl	%edi
	.cfi_restore 7
	.cfi_def_cfa_offset 4
	ret	$4
	.cfi_endproc
.LFE197:
	.size	_ZN7Runtime13GetStackTraceEv, .-_ZN7Runtime13GetStackTraceEv
	.align 2
	.p2align 4,,15
	.globl	_ZN7Runtime15printStackTraceEv
	.type	_ZN7Runtime15printStackTraceEv, @function
_ZN7Runtime15printStackTraceEv:
.LFB198:
	.loc 1 326 0
	.cfi_startproc
.LVL315:
	pushl	%esi
	.cfi_def_cfa_offset 8
	.cfi_offset 6, -8
	pushl	%ebx
	.cfi_def_cfa_offset 12
	.cfi_offset 3, -12
	call	__x86.get_pc_thunk.bx
	addl	$_GLOBAL_OFFSET_TABLE_, %ebx
	subl	$20, %esp
	.cfi_def_cfa_offset 32
	.loc 1 326 0
	movl	32(%esp), %esi
	.loc 1 327 0
	leal	4(%esp), %eax
	subl	$8, %esp
	.cfi_def_cfa_offset 40
	pushl	%esi
	.cfi_def_cfa_offset 44
	pushl	%eax
	.cfi_def_cfa_offset 48
	call	_ZN7Runtime13GetStackTraceEv
	.cfi_def_cfa_offset 44
.LVL316:
.LBB1482:
.LBB1483:
	.file 6 "kvm/log.h"
	.loc 6 29 0
	addl	$12, %esp
	.cfi_def_cfa_offset 32
.LVL317:
.LBB1484:
.LBB1485:
	.loc 2 37 0
	subl	$12, %esp
	.cfi_def_cfa_offset 44
	pushl	20(%esp)
	.cfi_def_cfa_offset 48
	call	kmalloc@PLT
.LVL318:
	movl	%eax, %esi
.LVL319:
	.loc 2 38 0
	popl	%eax
	.cfi_def_cfa_offset 44
	popl	%edx
	.cfi_def_cfa_offset 40
	pushl	12(%esp)
	.cfi_def_cfa_offset 44
	pushl	%esi
	.cfi_def_cfa_offset 48
	call	strcpy@PLT
.LVL320:
.LBE1485:
.LBE1484:
.LBB1486:
.LBB1487:
.LBB1488:
	.file 7 "include/iostream.hpp"
	.loc 7 22 0
	movl	%esi, (%esp)
	call	write@PLT
.LVL321:
.LBE1488:
.LBE1487:
.LBE1486:
.LBB1489:
.LBB1490:
	.loc 2 43 0
	movl	%esi, (%esp)
	call	kfree@PLT
.LVL322:
	addl	$16, %esp
	.cfi_def_cfa_offset 32
.LVL323:
.LBE1490:
.LBE1489:
.LBE1483:
.LBE1482:
.LBB1491:
.LBB1492:
	subl	$12, %esp
	.cfi_def_cfa_offset 44
	pushl	16(%esp)
	.cfi_def_cfa_offset 48
	call	kfree@PLT
.LVL324:
.LBE1492:
.LBE1491:
	.loc 1 328 0
	addl	$36, %esp
	.cfi_def_cfa_offset 12
	popl	%ebx
	.cfi_restore 3
	.cfi_def_cfa_offset 8
	popl	%esi
	.cfi_restore 6
	.cfi_def_cfa_offset 4
	ret
	.cfi_endproc
.LFE198:
	.size	_ZN7Runtime15printStackTraceEv, .-_ZN7Runtime15printStackTraceEv
	.align 2
	.p2align 4,,15
	.globl	_ZN7Runtime5CrashEv
	.type	_ZN7Runtime5CrashEv, @function
_ZN7Runtime5CrashEv:
.LFB196:
	.loc 1 294 0
	.cfi_startproc
.LVL325:
	pushl	%ebx
	.cfi_def_cfa_offset 8
	.cfi_offset 3, -8
	subl	$20, %esp
	.cfi_def_cfa_offset 28
	.loc 1 294 0
	movl	28(%esp), %ebx
	.loc 1 295 0
	pushl	%ebx
	.cfi_def_cfa_offset 32
	call	_ZN7Runtime15printStackTraceEv
.LVL326:
	.loc 1 296 0
	orl	$256, 528(%ebx)
	.loc 1 297 0
	addl	$24, %esp
	.cfi_def_cfa_offset 8
	popl	%ebx
	.cfi_restore 3
	.cfi_def_cfa_offset 4
	ret
	.cfi_endproc
.LFE196:
	.size	_ZN7Runtime5CrashEv, .-_ZN7Runtime5CrashEv
	.align 2
	.p2align 4,,15
	.globl	_ZN7Runtime22printManagedStackTraceEv
	.type	_ZN7Runtime22printManagedStackTraceEv, @function
_ZN7Runtime22printManagedStackTraceEv:
.LFB200:
	.loc 1 358 0
	.cfi_startproc
.LVL327:
	pushl	%esi
	.cfi_def_cfa_offset 8
	.cfi_offset 6, -8
	pushl	%ebx
	.cfi_def_cfa_offset 12
	.cfi_offset 3, -12
	call	__x86.get_pc_thunk.bx
	addl	$_GLOBAL_OFFSET_TABLE_, %ebx
	subl	$20, %esp
	.cfi_def_cfa_offset 32
	.loc 1 358 0
	movl	32(%esp), %esi
.LVL328:
	.loc 1 360 0
	leal	4(%esp), %eax
	subl	$8, %esp
	.cfi_def_cfa_offset 40
.LBB1523:
.LBB1524:
	.loc 6 24 0
	movl	$2, 712(%esi)
.LVL329:
.LBE1524:
.LBE1523:
	.loc 1 360 0
	pushl	%esi
	.cfi_def_cfa_offset 44
	pushl	%eax
	.cfi_def_cfa_offset 48
	call	_ZN7Runtime20GetManagedStackTraceEv
	.cfi_def_cfa_offset 44
.LVL330:
.LBB1525:
.LBB1526:
	.loc 6 29 0
	addl	$12, %esp
	.cfi_def_cfa_offset 32
.LVL331:
.LBB1527:
.LBB1528:
	.loc 2 37 0
	subl	$12, %esp
	.cfi_def_cfa_offset 44
	pushl	20(%esp)
	.cfi_def_cfa_offset 48
	call	kmalloc@PLT
.LVL332:
	movl	%eax, %esi
.LVL333:
	.loc 2 38 0
	popl	%eax
	.cfi_def_cfa_offset 44
	popl	%edx
	.cfi_def_cfa_offset 40
	pushl	12(%esp)
	.cfi_def_cfa_offset 44
	pushl	%esi
	.cfi_def_cfa_offset 48
	call	strcpy@PLT
.LVL334:
.LBE1528:
.LBE1527:
.LBB1529:
.LBB1530:
.LBB1531:
	.loc 7 22 0
	movl	%esi, (%esp)
	call	write@PLT
.LVL335:
.LBE1531:
.LBE1530:
.LBE1529:
.LBB1532:
.LBB1533:
	.loc 2 43 0
	movl	%esi, (%esp)
	call	kfree@PLT
.LVL336:
	addl	$16, %esp
	.cfi_def_cfa_offset 32
.LVL337:
.LBE1533:
.LBE1532:
.LBE1526:
.LBE1525:
.LBB1534:
.LBB1535:
	subl	$12, %esp
	.cfi_def_cfa_offset 44
	pushl	16(%esp)
	.cfi_def_cfa_offset 48
	call	kfree@PLT
.LVL338:
.LBE1535:
.LBE1534:
	.loc 1 361 0
	addl	$36, %esp
	.cfi_def_cfa_offset 12
	popl	%ebx
	.cfi_restore 3
	.cfi_def_cfa_offset 8
	popl	%esi
	.cfi_restore 6
	.cfi_def_cfa_offset 4
	ret
	.cfi_endproc
.LFE200:
	.size	_ZN7Runtime22printManagedStackTraceEv, .-_ZN7Runtime22printManagedStackTraceEv
	.section	.rodata.str1.1
.LC21:
	.string	"array"
	.text
	.align 2
	.p2align 4,,15
	.globl	_ZN7Runtime9typeToStrE4Type
	.type	_ZN7Runtime9typeToStrE4Type, @function
_ZN7Runtime9typeToStrE4Type:
.LFB202:
	.loc 1 405 0
	.cfi_startproc
.LVL339:
	pushl	%edi
	.cfi_def_cfa_offset 8
	.cfi_offset 7, -8
	pushl	%esi
	.cfi_def_cfa_offset 12
	.cfi_offset 6, -12
	pushl	%ebx
	.cfi_def_cfa_offset 16
	.cfi_offset 3, -16
	.loc 1 405 0
	movl	20(%esp), %eax
	movl	16(%esp), %esi
	call	__x86.get_pc_thunk.bx
	addl	$_GLOBAL_OFFSET_TABLE_, %ebx
	.loc 1 406 0
	cmpb	$12, %al
.LBB1572:
.LBB1573:
	.loc 2 26 0
	movl	$0, (%esi)
	movl	$0, 4(%esi)
	movl	$0, 8(%esi)
.LBE1573:
.LBE1572:
	.loc 1 406 0
	ja	.L130
	movzbl	%al, %eax
	movl	.L132@GOTOFF(%ebx,%eax,4), %edx
	addl	%ebx, %edx
	jmp	*%edx
	.section	.rodata
	.align 4
	.align 4
.L132:
	.long	.L130@GOTOFF
	.long	.L131@GOTOFF
	.long	.L133@GOTOFF
	.long	.L130@GOTOFF
	.long	.L134@GOTOFF
	.long	.L135@GOTOFF
	.long	.L136@GOTOFF
	.long	.L137@GOTOFF
	.long	.L138@GOTOFF
	.long	.L139@GOTOFF
	.long	.L140@GOTOFF
	.long	.L141@GOTOFF
	.long	.L142@GOTOFF
	.text
	.p2align 4,,10
	.p2align 3
.L142:
.LVL340:
.LBB1576:
.LBB1577:
	.loc 2 27 0
	leal	.LC21@GOTOFF(%ebx), %edi
	subl	$12, %esp
	.cfi_def_cfa_offset 28
.LVL341:
.L145:
.LBE1577:
.LBE1576:
.LBB1578:
.LBB1574:
	pushl	%edi
	.cfi_def_cfa_offset 32
	call	strlen@PLT
.LVL342:
	movl	%eax, 8(%esi)
	.loc 2 28 0
	addl	$1, %eax
	movl	%eax, 4(%esi)
	.loc 2 29 0
	movl	%eax, (%esp)
	call	kmalloc@PLT
.LVL343:
	movl	%eax, (%esi)
	.loc 2 30 0
	popl	%edx
	.cfi_def_cfa_offset 28
	popl	%ecx
	.cfi_def_cfa_offset 24
	pushl	%edi
	.cfi_def_cfa_offset 28
	pushl	%eax
	.cfi_def_cfa_offset 32
	call	strcpy@PLT
.LVL344:
	addl	$16, %esp
	.cfi_def_cfa_offset 16
.LBE1574:
.LBE1578:
	.loc 1 433 0
	movl	%esi, %eax
	popl	%ebx
	.cfi_remember_state
	.cfi_restore 3
	.cfi_def_cfa_offset 12
	popl	%esi
	.cfi_restore 6
	.cfi_def_cfa_offset 8
.LVL345:
	popl	%edi
	.cfi_restore 7
	.cfi_def_cfa_offset 4
	ret	$4
.LVL346:
	.p2align 4,,10
	.p2align 3
.L131:
	.cfi_restore_state
.LBB1579:
.LBB1580:
	.loc 2 27 0
	subl	$12, %esp
	.cfi_remember_state
	.cfi_def_cfa_offset 28
	leal	.LC10@GOTOFF(%ebx), %edi
	jmp	.L145
.LVL347:
	.p2align 4,,10
	.p2align 3
.L133:
	.cfi_restore_state
.LBE1580:
.LBE1579:
.LBB1581:
.LBB1582:
	subl	$12, %esp
	.cfi_remember_state
	.cfi_def_cfa_offset 28
	leal	.LC2@GOTOFF(%ebx), %edi
	jmp	.L145
.LVL348:
	.p2align 4,,10
	.p2align 3
.L134:
	.cfi_restore_state
.LBE1582:
.LBE1581:
.LBB1583:
.LBB1584:
	subl	$12, %esp
	.cfi_remember_state
	.cfi_def_cfa_offset 28
	leal	.LC3@GOTOFF(%ebx), %edi
	jmp	.L145
.LVL349:
	.p2align 4,,10
	.p2align 3
.L135:
	.cfi_restore_state
.LBE1584:
.LBE1583:
.LBB1585:
.LBB1586:
	subl	$12, %esp
	.cfi_remember_state
	.cfi_def_cfa_offset 28
	leal	.LC4@GOTOFF(%ebx), %edi
	jmp	.L145
.LVL350:
	.p2align 4,,10
	.p2align 3
.L136:
	.cfi_restore_state
.LBE1586:
.LBE1585:
.LBB1587:
.LBB1588:
	subl	$12, %esp
	.cfi_remember_state
	.cfi_def_cfa_offset 28
	leal	.LC5@GOTOFF(%ebx), %edi
	jmp	.L145
.LVL351:
	.p2align 4,,10
	.p2align 3
.L137:
	.cfi_restore_state
.LBE1588:
.LBE1587:
.LBB1589:
.LBB1590:
	subl	$12, %esp
	.cfi_remember_state
	.cfi_def_cfa_offset 28
	leal	.LC6@GOTOFF(%ebx), %edi
	jmp	.L145
.LVL352:
	.p2align 4,,10
	.p2align 3
.L138:
	.cfi_restore_state
.LBE1590:
.LBE1589:
.LBB1591:
.LBB1592:
	subl	$12, %esp
	.cfi_remember_state
	.cfi_def_cfa_offset 28
	leal	.LC7@GOTOFF(%ebx), %edi
	jmp	.L145
.LVL353:
	.p2align 4,,10
	.p2align 3
.L139:
	.cfi_restore_state
.LBE1592:
.LBE1591:
.LBB1593:
.LBB1594:
	subl	$12, %esp
	.cfi_remember_state
	.cfi_def_cfa_offset 28
	leal	.LC1@GOTOFF(%ebx), %edi
	jmp	.L145
.LVL354:
	.p2align 4,,10
	.p2align 3
.L140:
	.cfi_restore_state
.LBE1594:
.LBE1593:
.LBB1595:
.LBB1596:
	subl	$12, %esp
	.cfi_remember_state
	.cfi_def_cfa_offset 28
	leal	.LC8@GOTOFF(%ebx), %edi
	jmp	.L145
.LVL355:
	.p2align 4,,10
	.p2align 3
.L141:
	.cfi_restore_state
.LBE1596:
.LBE1595:
.LBB1597:
.LBB1598:
	subl	$12, %esp
	.cfi_remember_state
	.cfi_def_cfa_offset 28
	leal	.LC9@GOTOFF(%ebx), %edi
	jmp	.L145
.LVL356:
	.p2align 4,,10
	.p2align 3
.L130:
	.cfi_restore_state
.LBE1598:
.LBE1597:
.LBB1599:
.LBB1575:
	subl	$12, %esp
	.cfi_def_cfa_offset 28
	leal	.LC12@GOTOFF(%ebx), %edi
	jmp	.L145
.LBE1575:
.LBE1599:
	.cfi_endproc
.LFE202:
	.size	_ZN7Runtime9typeToStrE4Type, .-_ZN7Runtime9typeToStrE4Type
	.section	.rodata.str1.1
.LC22:
	.string	"Exception "
.LC23:
	.string	":"
.LC24:
	.string	":\n"
.LC25:
	.string	"Illegal operation"
.LC26:
	.string	"\n"
.LC27:
	.string	"Allocation error"
	.section	.rodata.str1.4,"aMS",@progbits,1
	.align 4
.LC28:
	.string	"Start module is not executable"
	.section	.rodata.str1.1
.LC29:
	.string	"Global memory overflow"
.LC30:
	.string	"Illegal type"
.LC31:
	.string	"Internal function is missing"
.LC32:
	.string	"Metadata incorrect type"
.LC33:
	.string	"Global constructor is missing"
.LC34:
	.string	"Feature is not implemented"
.LC35:
	.string	"Module version is too old"
.LC36:
	.string	"Index is out of range"
.LC37:
	.string	"Stack overflow"
	.section	.rodata.str1.4
	.align 4
.LC38:
	.string	"Floating point exception (check zero division)"
	.section	.rodata.str1.1
.LC39:
	.string	"Stack corrupted"
.LC40:
	.string	"Invalid module"
.LC41:
	.string	"Unknown error"
.LC42:
	.string	"Description: "
.LC43:
	.string	"Exception was thrown"
	.text
	.align 2
	.p2align 4,,15
	.globl	_ZN7Runtime9rtThrowExEPKciNS_8RtExTypeEN4kstd6stringE
	.type	_ZN7Runtime9rtThrowExEPKciNS_8RtExTypeEN4kstd6stringE, @function
_ZN7Runtime9rtThrowExEPKciNS_8RtExTypeEN4kstd6stringE:
.LFB204:
	.loc 1 466 0
	.cfi_startproc
.LVL357:
	pushl	%ebp
	.cfi_def_cfa_offset 8
	.cfi_offset 5, -8
	pushl	%edi
	.cfi_def_cfa_offset 12
	.cfi_offset 7, -12
	pushl	%esi
	.cfi_def_cfa_offset 16
	.cfi_offset 6, -16
	pushl	%ebx
	.cfi_def_cfa_offset 20
	.cfi_offset 3, -20
	call	__x86.get_pc_thunk.bx
	addl	$_GLOBAL_OFFSET_TABLE_, %ebx
	subl	$40, %esp
	.cfi_def_cfa_offset 60
.LVL358:
.LBB1871:
.LBB1872:
	.loc 6 24 0
	movl	60(%esp), %eax
.LBE1872:
.LBE1871:
	.loc 1 466 0
	movl	72(%esp), %edi
.LBB1874:
.LBB1873:
	.loc 6 24 0
	movl	$0, 712(%eax)
.LVL359:
.LBE1873:
.LBE1874:
.LBB1875:
.LBB1876:
.LBB1877:
	.loc 7 22 0
	leal	.LC22@GOTOFF(%ebx), %eax
	pushl	%eax
	.cfi_def_cfa_offset 64
	call	write@PLT
.LVL360:
.LBE1877:
.LBE1876:
.LBE1875:
.LBB1878:
.LBB1879:
.LBB1880:
	popl	%ebp
	.cfi_def_cfa_offset 60
	pushl	64(%esp)
	.cfi_def_cfa_offset 64
	call	write@PLT
.LVL361:
.LBE1880:
.LBE1879:
.LBE1878:
.LBB1881:
.LBB1882:
.LBB1883:
	leal	.LC23@GOTOFF(%ebx), %eax
	movl	%eax, (%esp)
	call	write@PLT
.LVL362:
.LBE1883:
.LBE1882:
.LBE1881:
.LBB1884:
.LBB1885:
.LBB1886:
	.loc 7 34 0
	popl	%eax
	.cfi_def_cfa_offset 60
	pushl	68(%esp)
	.cfi_def_cfa_offset 64
	call	itoa@PLT
.LVL363:
	movl	%eax, (%esp)
	call	write@PLT
.LVL364:
.LBE1886:
.LBE1885:
.LBE1884:
.LBB1887:
.LBB1888:
.LBB1889:
	.loc 7 22 0
	leal	.LC24@GOTOFF(%ebx), %eax
	movl	%eax, (%esp)
	call	write@PLT
.LVL365:
.LBE1889:
.LBE1888:
.LBE1887:
	.loc 1 472 0
	addl	$16, %esp
	.cfi_def_cfa_offset 48
	cmpl	$14, %edi
	ja	.L147
	movl	.L149@GOTOFF(%ebx,%edi,4), %eax
	addl	%ebx, %eax
	jmp	*%eax
	.section	.rodata
	.align 4
	.align 4
.L149:
	.long	.L148@GOTOFF
	.long	.L150@GOTOFF
	.long	.L151@GOTOFF
	.long	.L152@GOTOFF
	.long	.L153@GOTOFF
	.long	.L154@GOTOFF
	.long	.L155@GOTOFF
	.long	.L156@GOTOFF
	.long	.L157@GOTOFF
	.long	.L158@GOTOFF
	.long	.L159@GOTOFF
	.long	.L160@GOTOFF
	.long	.L161@GOTOFF
	.long	.L162@GOTOFF
	.long	.L163@GOTOFF
	.text
	.p2align 4,,10
	.p2align 3
.L162:
.LVL366:
.LBB1890:
.LBB1891:
.LBB1892:
	.loc 7 22 0
	leal	.LC40@GOTOFF(%ebx), %eax
	subl	$12, %esp
	.cfi_def_cfa_offset 60
	pushl	%eax
	.cfi_def_cfa_offset 64
	call	write@PLT
.LVL367:
	addl	$16, %esp
	.cfi_def_cfa_offset 48
.LVL368:
	.p2align 4,,10
	.p2align 3
.L166:
.LBE1892:
.LBE1891:
.LBE1890:
.LBB1893:
.LBB1894:
.LBB1895:
	leal	.LC26@GOTOFF(%ebx), %edi
	subl	$12, %esp
	.cfi_def_cfa_offset 60
.LBE1895:
.LBE1894:
.LBE1893:
.LBB1898:
.LBB1899:
	.loc 2 27 0
	leal	.LC0@GOTOFF(%ebx), %esi
.LBE1899:
.LBE1898:
.LBB1901:
.LBB1897:
.LBB1896:
	.loc 7 22 0
	pushl	%edi
	.cfi_def_cfa_offset 64
	call	write@PLT
.LVL369:
.LBE1896:
.LBE1897:
.LBE1901:
.LBB1902:
.LBB1900:
	.loc 2 27 0
	movl	%esi, (%esp)
	call	strlen@PLT
.LVL370:
	.loc 2 28 0
	addl	$1, %eax
	.loc 2 29 0
	movl	%eax, (%esp)
	call	kmalloc@PLT
.LVL371:
	movl	%eax, %ebp
	.loc 2 30 0
	popl	%eax
	.cfi_def_cfa_offset 60
	popl	%edx
	.cfi_def_cfa_offset 56
	pushl	%esi
	.cfi_def_cfa_offset 60
	pushl	%ebp
	.cfi_def_cfa_offset 64
	call	strcpy@PLT
.LVL372:
.LBE1900:
.LBE1902:
.LBB1903:
.LBB1904:
	.loc 2 150 0
	popl	%ecx
	.cfi_def_cfa_offset 60
	popl	%esi
	.cfi_def_cfa_offset 56
	pushl	%ebp
	.cfi_def_cfa_offset 60
	movl	76(%esp), %eax
	pushl	(%eax)
	.cfi_def_cfa_offset 64
	call	strcmp@PLT
.LVL373:
.LBE1904:
.LBE1903:
.LBB1906:
.LBB1907:
	.loc 2 43 0
	movl	%ebp, (%esp)
.LBE1907:
.LBE1906:
.LBB1909:
.LBB1905:
	.loc 2 150 0
	movl	%eax, 28(%esp)
.LVL374:
.LBE1905:
.LBE1909:
.LBB1910:
.LBB1908:
	.loc 2 43 0
	call	kfree@PLT
.LVL375:
.LBE1908:
.LBE1910:
	.loc 1 522 0
	addl	$16, %esp
	.cfi_def_cfa_offset 48
	movl	12(%esp), %eax
	testl	%eax, %eax
	je	.L165
.LVL376:
.LBB1911:
.LBB1912:
	.loc 2 36 0
	movl	64(%esp), %eax
	.loc 2 37 0
	subl	$12, %esp
	.cfi_def_cfa_offset 60
	.loc 2 36 0
	movl	4(%eax), %edx
	.loc 2 37 0
	pushl	%edx
	.cfi_def_cfa_offset 64
	movl	%edx, 28(%esp)
	call	kmalloc@PLT
.LVL377:
	movl	%eax, %ebp
	.loc 2 38 0
	popl	%eax
	.cfi_def_cfa_offset 60
	popl	%edx
	.cfi_def_cfa_offset 56
	movl	72(%esp), %eax
	pushl	(%eax)
	.cfi_def_cfa_offset 60
	pushl	%ebp
	.cfi_def_cfa_offset 64
	call	strcpy@PLT
.LVL378:
.LBE1912:
.LBE1911:
.LBB1913:
.LBB1914:
.LBB1915:
	.loc 7 22 0
	leal	.LC42@GOTOFF(%ebx), %eax
	movl	%eax, (%esp)
	call	write@PLT
.LVL379:
.LBE1915:
.LBE1914:
.LBE1913:
.LBB1916:
.LBB1917:
	.loc 6 29 0
	addl	$16, %esp
	.cfi_def_cfa_offset 48
	movl	12(%esp), %edx
.LVL380:
.LBB1918:
.LBB1919:
	.loc 2 37 0
	subl	$12, %esp
	.cfi_def_cfa_offset 60
	pushl	%edx
	.cfi_def_cfa_offset 64
	call	kmalloc@PLT
.LVL381:
	.loc 2 38 0
	popl	%ecx
	.cfi_def_cfa_offset 60
	popl	%esi
	.cfi_def_cfa_offset 56
	pushl	%ebp
	.cfi_def_cfa_offset 60
	pushl	%eax
	.cfi_def_cfa_offset 64
	movl	%eax, 28(%esp)
	call	strcpy@PLT
.LVL382:
.LBE1919:
.LBE1918:
.LBB1920:
.LBB1921:
.LBB1922:
	.loc 7 22 0
	movl	28(%esp), %edx
	movl	%edx, (%esp)
	movl	%edx, 28(%esp)
	call	write@PLT
.LVL383:
.LBE1922:
.LBE1921:
.LBE1920:
.LBB1923:
.LBB1924:
	.loc 2 43 0
	movl	28(%esp), %edx
	movl	%edx, (%esp)
	call	kfree@PLT
.LVL384:
	addl	$16, %esp
	.cfi_def_cfa_offset 48
.LVL385:
.LBE1924:
.LBE1923:
.LBE1917:
.LBE1916:
.LBB1925:
.LBB1926:
.LBB1927:
	.loc 7 22 0
	subl	$12, %esp
	.cfi_def_cfa_offset 60
	pushl	%edi
	.cfi_def_cfa_offset 64
	call	write@PLT
.LVL386:
.LBE1927:
.LBE1926:
.LBE1925:
.LBB1928:
.LBB1929:
	.loc 2 43 0
	movl	%ebp, (%esp)
	call	kfree@PLT
.LVL387:
.LBE1929:
.LBE1928:
	addl	$16, %esp
	.cfi_def_cfa_offset 48
.LVL388:
.L165:
	.loc 1 524 0
	subl	$12, %esp
	.cfi_def_cfa_offset 60
	pushl	60(%esp)
	.cfi_def_cfa_offset 64
	call	_ZN7Runtime15printStackTraceEv
.LVL389:
	.loc 1 526 0
	leal	.LC43@GOTOFF(%ebx), %eax
	addl	$12, %esp
	.cfi_def_cfa_offset 52
	pushl	$-1
	.cfi_def_cfa_offset 56
	pushl	$2
	.cfi_def_cfa_offset 60
	pushl	%eax
	.cfi_def_cfa_offset 64
	call	panic@PLT
.LVL390:
	.loc 1 527 0
	addl	$44, %esp
	.cfi_def_cfa_offset 20
	popl	%ebx
	.cfi_restore 3
	.cfi_def_cfa_offset 16
	popl	%esi
	.cfi_restore 6
	.cfi_def_cfa_offset 12
	popl	%edi
	.cfi_restore 7
	.cfi_def_cfa_offset 8
	popl	%ebp
	.cfi_restore 5
	.cfi_def_cfa_offset 4
	ret
.LVL391:
	.p2align 4,,10
	.p2align 3
.L163:
	.cfi_def_cfa_offset 48
	.cfi_offset 3, -20
	.cfi_offset 5, -8
	.cfi_offset 6, -16
	.cfi_offset 7, -12
.LBB1930:
.LBB1931:
.LBB1932:
	.loc 7 22 0
	leal	.LC39@GOTOFF(%ebx), %eax
	subl	$12, %esp
	.cfi_def_cfa_offset 60
	pushl	%eax
	.cfi_def_cfa_offset 64
	call	write@PLT
.LVL392:
	addl	$16, %esp
	.cfi_def_cfa_offset 48
	jmp	.L166
.LVL393:
	.p2align 4,,10
	.p2align 3
.L148:
.LBE1932:
.LBE1931:
.LBE1930:
.LBB1933:
.LBB1934:
.LBB1935:
	leal	.LC37@GOTOFF(%ebx), %eax
	subl	$12, %esp
	.cfi_def_cfa_offset 60
	pushl	%eax
	.cfi_def_cfa_offset 64
	call	write@PLT
.LVL394:
	addl	$16, %esp
	.cfi_def_cfa_offset 48
	jmp	.L166
.LVL395:
	.p2align 4,,10
	.p2align 3
.L150:
.LBE1935:
.LBE1934:
.LBE1933:
.LBB1936:
.LBB1937:
.LBB1938:
	leal	.LC29@GOTOFF(%ebx), %eax
	subl	$12, %esp
	.cfi_def_cfa_offset 60
	pushl	%eax
	.cfi_def_cfa_offset 64
	call	write@PLT
.LVL396:
	addl	$16, %esp
	.cfi_def_cfa_offset 48
	jmp	.L166
.LVL397:
	.p2align 4,,10
	.p2align 3
.L151:
.LBE1938:
.LBE1937:
.LBE1936:
.LBB1939:
.LBB1940:
.LBB1941:
	leal	.LC34@GOTOFF(%ebx), %eax
	subl	$12, %esp
	.cfi_def_cfa_offset 60
	pushl	%eax
	.cfi_def_cfa_offset 64
	call	write@PLT
.LVL398:
	addl	$16, %esp
	.cfi_def_cfa_offset 48
	jmp	.L166
.LVL399:
	.p2align 4,,10
	.p2align 3
.L152:
.LBE1941:
.LBE1940:
.LBE1939:
.LBB1942:
.LBB1943:
.LBB1944:
	leal	.LC33@GOTOFF(%ebx), %eax
	subl	$12, %esp
	.cfi_def_cfa_offset 60
	pushl	%eax
	.cfi_def_cfa_offset 64
	call	write@PLT
.LVL400:
	addl	$16, %esp
	.cfi_def_cfa_offset 48
	jmp	.L166
.LVL401:
	.p2align 4,,10
	.p2align 3
.L153:
.LBE1944:
.LBE1943:
.LBE1942:
.LBB1945:
.LBB1946:
.LBB1947:
	leal	.LC28@GOTOFF(%ebx), %eax
	subl	$12, %esp
	.cfi_def_cfa_offset 60
	pushl	%eax
	.cfi_def_cfa_offset 64
	call	write@PLT
.LVL402:
	addl	$16, %esp
	.cfi_def_cfa_offset 48
	jmp	.L166
.LVL403:
	.p2align 4,,10
	.p2align 3
.L154:
.LBE1947:
.LBE1946:
.LBE1945:
.LBB1948:
.LBB1949:
.LBB1950:
	leal	.LC25@GOTOFF(%ebx), %eax
	subl	$12, %esp
	.cfi_def_cfa_offset 60
	pushl	%eax
	.cfi_def_cfa_offset 64
	call	write@PLT
.LVL404:
	addl	$16, %esp
	.cfi_def_cfa_offset 48
	jmp	.L166
.LVL405:
	.p2align 4,,10
	.p2align 3
.L155:
.LBE1950:
.LBE1949:
.LBE1948:
.LBB1951:
.LBB1952:
.LBB1953:
	leal	.LC27@GOTOFF(%ebx), %eax
	subl	$12, %esp
	.cfi_def_cfa_offset 60
	pushl	%eax
	.cfi_def_cfa_offset 64
	call	write@PLT
.LVL406:
	addl	$16, %esp
	.cfi_def_cfa_offset 48
	jmp	.L166
.LVL407:
	.p2align 4,,10
	.p2align 3
.L156:
.LBE1953:
.LBE1952:
.LBE1951:
.LBB1954:
.LBB1955:
.LBB1956:
	leal	.LC31@GOTOFF(%ebx), %eax
	subl	$12, %esp
	.cfi_def_cfa_offset 60
	pushl	%eax
	.cfi_def_cfa_offset 64
	call	write@PLT
.LVL408:
	addl	$16, %esp
	.cfi_def_cfa_offset 48
	jmp	.L166
.LVL409:
	.p2align 4,,10
	.p2align 3
.L157:
.LBE1956:
.LBE1955:
.LBE1954:
.LBB1957:
.LBB1958:
.LBB1959:
	leal	.LC32@GOTOFF(%ebx), %eax
	subl	$12, %esp
	.cfi_def_cfa_offset 60
	pushl	%eax
	.cfi_def_cfa_offset 64
	call	write@PLT
.LVL410:
	addl	$16, %esp
	.cfi_def_cfa_offset 48
	jmp	.L166
.LVL411:
	.p2align 4,,10
	.p2align 3
.L158:
.LBE1959:
.LBE1958:
.LBE1957:
.LBB1960:
.LBB1961:
.LBB1962:
	leal	.LC36@GOTOFF(%ebx), %eax
	subl	$12, %esp
	.cfi_def_cfa_offset 60
	pushl	%eax
	.cfi_def_cfa_offset 64
	call	write@PLT
.LVL412:
	addl	$16, %esp
	.cfi_def_cfa_offset 48
	jmp	.L166
.LVL413:
	.p2align 4,,10
	.p2align 3
.L159:
.LBE1962:
.LBE1961:
.LBE1960:
.LBB1963:
.LBB1964:
.LBB1965:
	leal	.LC30@GOTOFF(%ebx), %eax
	subl	$12, %esp
	.cfi_def_cfa_offset 60
	pushl	%eax
	.cfi_def_cfa_offset 64
	call	write@PLT
.LVL414:
	addl	$16, %esp
	.cfi_def_cfa_offset 48
	jmp	.L166
.LVL415:
	.p2align 4,,10
	.p2align 3
.L160:
.LBE1965:
.LBE1964:
.LBE1963:
.LBB1966:
.LBB1967:
.LBB1968:
	leal	.LC38@GOTOFF(%ebx), %eax
	subl	$12, %esp
	.cfi_def_cfa_offset 60
	pushl	%eax
	.cfi_def_cfa_offset 64
	call	write@PLT
.LVL416:
	addl	$16, %esp
	.cfi_def_cfa_offset 48
	jmp	.L166
.LVL417:
	.p2align 4,,10
	.p2align 3
.L161:
.LBE1968:
.LBE1967:
.LBE1966:
.LBB1969:
.LBB1970:
.LBB1971:
	leal	.LC35@GOTOFF(%ebx), %eax
	subl	$12, %esp
	.cfi_def_cfa_offset 60
	pushl	%eax
	.cfi_def_cfa_offset 64
	call	write@PLT
.LVL418:
	addl	$16, %esp
	.cfi_def_cfa_offset 48
	jmp	.L166
.LVL419:
	.p2align 4,,10
	.p2align 3
.L147:
.LBE1971:
.LBE1970:
.LBE1969:
.LBB1972:
.LBB1973:
.LBB1974:
	leal	.LC41@GOTOFF(%ebx), %eax
	subl	$12, %esp
	.cfi_def_cfa_offset 60
	pushl	%eax
	.cfi_def_cfa_offset 64
	call	write@PLT
.LVL420:
	addl	$16, %esp
	.cfi_def_cfa_offset 48
	jmp	.L166
.LBE1974:
.LBE1973:
.LBE1972:
	.cfi_endproc
.LFE204:
	.size	_ZN7Runtime9rtThrowExEPKciNS_8RtExTypeEN4kstd6stringE, .-_ZN7Runtime9rtThrowExEPKciNS_8RtExTypeEN4kstd6stringE
	.section	.rodata.str1.1
.LC44:
	.string	"kvm/runtime.cpp"
	.text
	.align 2
	.p2align 4,,15
	.globl	_ZN7Runtime6CreateEv
	.type	_ZN7Runtime6CreateEv, @function
_ZN7Runtime6CreateEv:
.LFB186:
	.loc 1 29 0
	.cfi_startproc
.LVL421:
	pushl	%edi
	.cfi_def_cfa_offset 8
	.cfi_offset 7, -8
	pushl	%esi
	.cfi_def_cfa_offset 12
	.cfi_offset 6, -12
	pushl	%ebx
	.cfi_def_cfa_offset 16
	.cfi_offset 3, -16
	call	__x86.get_pc_thunk.bx
	addl	$_GLOBAL_OFFSET_TABLE_, %ebx
	subl	$16, %esp
	.cfi_def_cfa_offset 32
	.loc 1 30 0
	movl	_ZN7Runtime8InstanceE@GOTOFF(%ebx), %eax
	.loc 1 29 0
	movl	32(%esp), %esi
	.loc 1 30 0
	testl	%eax, %eax
	je	.L172
.LVL422:
.LBB1980:
.LBB1981:
.LBB1982:
	.loc 2 27 0
	leal	.LC0@GOTOFF(%ebx), %edi
	.loc 2 26 0
	movl	$0, 4(%esp)
	movl	$0, 8(%esp)
	movl	$0, 12(%esp)
	.loc 2 27 0
	subl	$12, %esp
	.cfi_def_cfa_offset 44
	pushl	%edi
	.cfi_def_cfa_offset 48
	call	strlen@PLT
.LVL423:
	movl	%eax, 28(%esp)
	.loc 2 28 0
	addl	$1, %eax
	movl	%eax, 24(%esp)
	.loc 2 29 0
	movl	%eax, (%esp)
	call	kmalloc@PLT
.LVL424:
	movl	%eax, 20(%esp)
	.loc 2 30 0
	popl	%edx
	.cfi_def_cfa_offset 44
	popl	%ecx
	.cfi_def_cfa_offset 40
	pushl	%edi
	.cfi_def_cfa_offset 44
	pushl	%eax
	.cfi_def_cfa_offset 48
	call	strcpy@PLT
.LVL425:
.LBE1982:
.LBE1981:
.LBE1980:
	.loc 1 31 0
	popl	%edi
	.cfi_def_cfa_offset 44
	leal	16(%esp), %eax
	pushl	%eax
	.cfi_def_cfa_offset 48
	leal	.LC44@GOTOFF(%ebx), %eax
	pushl	$16
	.cfi_def_cfa_offset 52
	pushl	$31
	.cfi_def_cfa_offset 56
	pushl	%eax
	.cfi_def_cfa_offset 60
	pushl	%esi
	.cfi_def_cfa_offset 64
	call	_ZN7Runtime9rtThrowExEPKciNS_8RtExTypeEN4kstd6stringE
.LVL426:
.LBB1983:
.LBB1984:
	.loc 2 43 0
	addl	$20, %esp
	.cfi_def_cfa_offset 44
	pushl	16(%esp)
	.cfi_def_cfa_offset 48
	call	kfree@PLT
.LVL427:
.LBE1984:
.LBE1983:
	addl	$16, %esp
	.cfi_def_cfa_offset 32
.L172:
	.loc 1 35 0
	subl	$8, %esp
	.cfi_def_cfa_offset 40
	.loc 1 32 0
	movl	%esi, _ZN7Runtime8InstanceE@GOTOFF(%ebx)
	.loc 1 40 0
	leal	532(%esi), %edi
	.loc 1 35 0
	pushl	$1
	.cfi_def_cfa_offset 44
	pushl	56(%esi)
	.cfi_def_cfa_offset 48
	call	calloc@PLT
.LVL428:
	movl	%eax, 16(%esi)
	.loc 1 36 0
	movl	%eax, 20(%esi)
	.loc 1 37 0
	popl	%eax
	.cfi_def_cfa_offset 44
	popl	%edx
	.cfi_def_cfa_offset 40
	pushl	$1
	.cfi_def_cfa_offset 44
	pushl	64(%esi)
	.cfi_def_cfa_offset 48
	call	calloc@PLT
.LVL429:
	movl	%eax, 24(%esi)
	.loc 1 38 0
	movl	%eax, 28(%esi)
	.loc 1 40 0
	popl	%ecx
	.cfi_def_cfa_offset 44
	popl	%eax
	.cfi_def_cfa_offset 40
	pushl	%esi
	.cfi_def_cfa_offset 44
	pushl	%edi
	.cfi_def_cfa_offset 48
	call	_ZN7Runtime13MemoryManager10SetRuntimeEPS_@PLT
.LVL430:
	.loc 1 41 0
	movl	%edi, (%esp)
	call	_ZN7Runtime13MemoryManager4InitEv@PLT
.LVL431:
	.loc 1 42 0
	orl	$8, 528(%esi)
	.loc 1 49 0
	addl	$32, %esp
	.cfi_def_cfa_offset 16
	popl	%ebx
	.cfi_restore 3
	.cfi_def_cfa_offset 12
	popl	%esi
	.cfi_restore 6
	.cfi_def_cfa_offset 8
	popl	%edi
	.cfi_restore 7
	.cfi_def_cfa_offset 4
	ret
	.cfi_endproc
.LFE186:
	.size	_ZN7Runtime6CreateEv, .-_ZN7Runtime6CreateEv
	.align 2
	.p2align 4,,15
	.globl	_ZN7Runtime6CreateEN4kstd6stringE
	.type	_ZN7Runtime6CreateEN4kstd6stringE, @function
_ZN7Runtime6CreateEN4kstd6stringE:
.LFB185:
	.loc 1 23 0
	.cfi_startproc
.LVL432:
	pushl	%edi
	.cfi_def_cfa_offset 8
	.cfi_offset 7, -8
	pushl	%esi
	.cfi_def_cfa_offset 12
	.cfi_offset 6, -12
	pushl	%ebx
	.cfi_def_cfa_offset 16
	.cfi_offset 3, -16
	.loc 1 23 0
	movl	16(%esp), %esi
.LVL433:
	movl	20(%esp), %edi
.LVL434:
	call	__x86.get_pc_thunk.bx
	addl	$_GLOBAL_OFFSET_TABLE_, %ebx
.LBB1987:
.LBB1988:
	.loc 2 48 0
	subl	$12, %esp
	.cfi_def_cfa_offset 28
	pushl	72(%esi)
	.cfi_def_cfa_offset 32
	call	kfree@PLT
.LVL435:
	.loc 2 49 0
	movl	8(%edi), %eax
	movl	%eax, 80(%esi)
	.loc 2 50 0
	movl	4(%edi), %eax
	movl	%eax, 76(%esi)
	.loc 2 51 0
	movl	%eax, (%esp)
	call	kmalloc@PLT
.LVL436:
	movl	%eax, 72(%esi)
	.loc 2 52 0
	popl	%edx
	.cfi_def_cfa_offset 28
	popl	%ecx
	.cfi_def_cfa_offset 24
	pushl	(%edi)
	.cfi_def_cfa_offset 28
	pushl	%eax
	.cfi_def_cfa_offset 32
	call	strcpy@PLT
.LVL437:
.LBE1988:
.LBE1987:
	.loc 1 25 0
	addl	$16, %esp
	.cfi_def_cfa_offset 16
	movl	%esi, 16(%esp)
.LVL438:
	.loc 1 26 0
	popl	%ebx
	.cfi_restore 3
	.cfi_def_cfa_offset 12
	popl	%esi
	.cfi_restore 6
	.cfi_def_cfa_offset 8
	popl	%edi
	.cfi_restore 7
	.cfi_def_cfa_offset 4
	.loc 1 25 0
	jmp	_ZN7Runtime6CreateEv
.LVL439:
	.cfi_endproc
.LFE185:
	.size	_ZN7Runtime6CreateEN4kstd6stringE, .-_ZN7Runtime6CreateEN4kstd6stringE
	.section	.rodata.str1.1
.LC45:
	.string	"-d"
.LC46:
	.string	"--no-jit"
.LC47:
	.string	"--gc-debug"
.LC48:
	.string	"GC debug option disabled\n"
	.text
	.align 2
	.p2align 4,,15
	.globl	_ZN7Runtime16ParseCommandLineEiPPc
	.type	_ZN7Runtime16ParseCommandLineEiPPc, @function
_ZN7Runtime16ParseCommandLineEiPPc:
.LFB187:
	.loc 1 52 0
	.cfi_startproc
.LVL440:
	pushl	%ebp
	.cfi_def_cfa_offset 8
	.cfi_offset 5, -8
	pushl	%edi
	.cfi_def_cfa_offset 12
	.cfi_offset 7, -12
	pushl	%esi
	.cfi_def_cfa_offset 16
	.cfi_offset 6, -16
	pushl	%ebx
	.cfi_def_cfa_offset 20
	.cfi_offset 3, -20
	call	__x86.get_pc_thunk.bx
	addl	$_GLOBAL_OFFSET_TABLE_, %ebx
	subl	$44, %esp
	.cfi_def_cfa_offset 64
	.loc 1 52 0
	movl	68(%esp), %edi
	movl	72(%esp), %esi
.LVL441:
	.loc 1 53 0
	testl	%edi, %edi
	movl	(%esi), %ebp
	je	.L191
	leal	.LC45@GOTOFF(%ebx), %eax
	cmpb	$45, 0(%ebp)
	movl	%eax, %ecx
	.loc 1 57 0
	leal	.LC46@GOTOFF(%ebx), %eax
	movl	%eax, 4(%esp)
	.loc 1 59 0
	leal	.LC47@GOTOFF(%ebx), %eax
	movl	%eax, 8(%esp)
	.loc 1 53 0
	jne	.L191
	movl	%ebp, %eax
	movl	%ecx, %ebp
	jmp	.L187
	.p2align 4,,10
	.p2align 3
.L194:
.LVL442:
.LBB2003:
.LBB2004:
	.loc 4 414 0
	movl	64(%esp), %eax
	movb	$1, 556(%eax)
.LVL443:
.L182:
.LBE2004:
.LBE2003:
	.loc 1 53 0
	subl	$1, %edi
.LVL444:
	leal	4(%esi), %edx
.LVL445:
	je	.L192
.L185:
	.loc 1 53 0 is_stmt 0 discriminator 1
	movl	4(%esi), %eax
	cmpb	$45, (%eax)
	jne	.L193
	movl	%edx, %esi
.LVL446:
.L187:
	.loc 1 55 0 is_stmt 1
	subl	$8, %esp
	.cfi_def_cfa_offset 72
	pushl	%ebp
	.cfi_def_cfa_offset 76
	pushl	%eax
	.cfi_def_cfa_offset 80
	call	strcmp@PLT
.LVL447:
	addl	$16, %esp
	.cfi_def_cfa_offset 64
	testl	%eax, %eax
	je	.L194
	.loc 1 57 0
	subl	$8, %esp
	.cfi_def_cfa_offset 72
	pushl	12(%esp)
	.cfi_def_cfa_offset 76
	pushl	(%esi)
	.cfi_def_cfa_offset 80
	call	strcmp@PLT
.LVL448:
	addl	$16, %esp
	.cfi_def_cfa_offset 64
	testl	%eax, %eax
	jne	.L183
	.loc 1 58 0
	movl	64(%esp), %eax
	.loc 1 53 0
	subl	$1, %edi
.LVL449:
	leal	4(%esi), %edx
	.loc 1 58 0
	movb	$0, 4(%eax)
.LVL450:
	.loc 1 53 0
	jne	.L185
.L192:
	movl	4(%esi), %ebp
	xorl	%edi, %edi
.L178:
	movl	%edx, 4(%esp)
.LVL451:
.LBB2005:
.LBB2006:
	.loc 2 58 0
	subl	$12, %esp
	.cfi_def_cfa_offset 76
	movl	76(%esp), %eax
	pushl	72(%eax)
	.cfi_def_cfa_offset 80
.LVL452:
	call	kfree@PLT
.LVL453:
	.loc 2 59 0
	movl	%ebp, (%esp)
	call	strlen@PLT
.LVL454:
	movl	80(%esp), %ecx
	movl	%eax, 80(%ecx)
	.loc 2 60 0
	addl	$1, %eax
	movl	%eax, 76(%ecx)
	.loc 2 61 0
	movl	%eax, (%esp)
	call	kmalloc@PLT
.LVL455:
	movl	80(%esp), %ecx
	movl	%eax, 72(%ecx)
	.loc 2 62 0
	popl	%edx
	.cfi_def_cfa_offset 76
	popl	%ecx
	.cfi_def_cfa_offset 72
	pushl	%ebp
	.cfi_def_cfa_offset 76
	pushl	%eax
	.cfi_def_cfa_offset 80
	call	strcpy@PLT
.LVL456:
.LBE2006:
.LBE2005:
	.loc 1 71 0
	movl	80(%esp), %eax
	.loc 1 72 0
	movl	20(%esp), %edx
	.loc 1 71 0
	movl	%edi, 40(%eax)
	.loc 1 72 0
	movl	%edx, 32(%eax)
	.loc 1 73 0
	addl	$60, %esp
	.cfi_def_cfa_offset 20
	popl	%ebx
	.cfi_restore 3
	.cfi_def_cfa_offset 16
	popl	%esi
	.cfi_restore 6
	.cfi_def_cfa_offset 12
	popl	%edi
	.cfi_restore 7
	.cfi_def_cfa_offset 8
	popl	%ebp
	.cfi_restore 5
	.cfi_def_cfa_offset 4
	ret
.LVL457:
	.p2align 4,,10
	.p2align 3
.L183:
	.cfi_def_cfa_offset 64
	.cfi_offset 3, -20
	.cfi_offset 5, -8
	.cfi_offset 6, -16
	.cfi_offset 7, -12
	.loc 1 59 0
	subl	$8, %esp
	.cfi_def_cfa_offset 72
	pushl	16(%esp)
	.cfi_def_cfa_offset 76
	pushl	(%esi)
	.cfi_def_cfa_offset 80
	call	strcmp@PLT
.LVL458:
	addl	$16, %esp
	.cfi_def_cfa_offset 64
	testl	%eax, %eax
.LBB2007:
.LBB2008:
.LBB2009:
	.loc 2 26 0
	movl	$0, 20(%esp)
	movl	$0, 24(%esp)
	movl	$0, 28(%esp)
.LBE2009:
.LBE2008:
.LBE2007:
	.loc 1 59 0
	je	.L195
.LVL459:
.LBB2012:
.LBB2013:
.LBB2014:
	.loc 2 27 0
	leal	.LC0@GOTOFF(%ebx), %edx
	subl	$12, %esp
	.cfi_def_cfa_offset 76
	pushl	%edx
	.cfi_def_cfa_offset 80
	movl	%edx, 28(%esp)
	call	strlen@PLT
.LVL460:
	movl	%eax, 44(%esp)
	.loc 2 28 0
	addl	$1, %eax
	movl	%eax, 40(%esp)
	.loc 2 29 0
	movl	%eax, (%esp)
	call	kmalloc@PLT
.LVL461:
	movl	%eax, 36(%esp)
	.loc 2 30 0
	popl	%edx
	.cfi_def_cfa_offset 76
	popl	%ecx
	.cfi_def_cfa_offset 72
	movl	20(%esp), %edx
	pushl	%edx
	.cfi_def_cfa_offset 76
	pushl	%eax
	.cfi_def_cfa_offset 80
	call	strcpy@PLT
.LVL462:
.LBE2014:
.LBE2013:
.LBE2012:
	.loc 1 68 0
	popl	%eax
	.cfi_def_cfa_offset 76
	leal	32(%esp), %eax
	pushl	%eax
	.cfi_def_cfa_offset 80
	pushl	$15
	.cfi_def_cfa_offset 84
	pushl	$68
	.cfi_def_cfa_offset 88
.L190:
	leal	.LC44@GOTOFF(%ebx), %eax
	pushl	%eax
	.cfi_def_cfa_offset 92
	pushl	92(%esp)
	.cfi_def_cfa_offset 96
	call	_ZN7Runtime9rtThrowExEPKciNS_8RtExTypeEN4kstd6stringE
.LVL463:
.LBB2015:
.LBB2016:
	.loc 2 43 0
	addl	$20, %esp
	.cfi_def_cfa_offset 76
	pushl	32(%esp)
	.cfi_def_cfa_offset 80
	call	kfree@PLT
.LVL464:
.LBE2016:
.LBE2015:
	.loc 1 68 0
	addl	$16, %esp
	.cfi_def_cfa_offset 64
	jmp	.L182
	.p2align 4,,10
	.p2align 3
.L195:
.LVL465:
.LBB2017:
.LBB2011:
.LBB2010:
	.loc 2 27 0
	leal	.LC48@GOTOFF(%ebx), %edx
	subl	$12, %esp
	.cfi_remember_state
	.cfi_def_cfa_offset 76
	pushl	%edx
	.cfi_def_cfa_offset 80
	movl	%edx, 28(%esp)
	call	strlen@PLT
.LVL466:
	movl	%eax, 44(%esp)
	.loc 2 28 0
	addl	$1, %eax
	movl	%eax, 40(%esp)
	.loc 2 29 0
	movl	%eax, (%esp)
	call	kmalloc@PLT
.LVL467:
	movl	%eax, 36(%esp)
	.loc 2 30 0
	popl	%edx
	.cfi_def_cfa_offset 76
	popl	%ecx
	.cfi_def_cfa_offset 72
	movl	20(%esp), %edx
	pushl	%edx
	.cfi_def_cfa_offset 76
	pushl	%eax
	.cfi_def_cfa_offset 80
	call	strcpy@PLT
.LVL468:
.LBE2010:
.LBE2011:
.LBE2017:
	.loc 1 64 0
	popl	%eax
	.cfi_def_cfa_offset 76
	leal	32(%esp), %eax
	pushl	%eax
	.cfi_def_cfa_offset 80
	pushl	$15
	.cfi_def_cfa_offset 84
	pushl	$64
	.cfi_def_cfa_offset 88
	jmp	.L190
.LVL469:
	.p2align 4,,10
	.p2align 3
.L193:
	.cfi_restore_state
	movl	%eax, %ebp
	jmp	.L178
.LVL470:
.L191:
	.loc 1 53 0
	movl	%esi, %edx
	jmp	.L178
	.cfi_endproc
.LFE187:
	.size	_ZN7Runtime16ParseCommandLineEiPPc, .-_ZN7Runtime16ParseCommandLineEiPPc
	.align 2
	.p2align 4,,15
	.globl	_ZN7Runtime11ThrowAndDieENS_8RtExTypeE
	.type	_ZN7Runtime11ThrowAndDieENS_8RtExTypeE, @function
_ZN7Runtime11ThrowAndDieENS_8RtExTypeE:
.LFB195:
	.loc 1 288 0
	.cfi_startproc
.LVL471:
	pushl	%esi
	.cfi_def_cfa_offset 8
	.cfi_offset 6, -8
	pushl	%ebx
	.cfi_def_cfa_offset 12
	.cfi_offset 3, -12
	call	__x86.get_pc_thunk.bx
	addl	$_GLOBAL_OFFSET_TABLE_, %ebx
	subl	$32, %esp
	.cfi_def_cfa_offset 44
.LVL472:
.LBB2023:
.LBB2024:
.LBB2025:
	.loc 2 27 0
	leal	.LC0@GOTOFF(%ebx), %esi
	.loc 2 26 0
	movl	$0, 16(%esp)
	movl	$0, 20(%esp)
	movl	$0, 24(%esp)
	.loc 2 27 0
	pushl	%esi
	.cfi_def_cfa_offset 48
	call	strlen@PLT
.LVL473:
	movl	%eax, 28(%esp)
	.loc 2 28 0
	addl	$1, %eax
	movl	%eax, 24(%esp)
	.loc 2 29 0
	movl	%eax, (%esp)
	call	kmalloc@PLT
.LVL474:
	movl	%eax, 20(%esp)
	.loc 2 30 0
	popl	%edx
	.cfi_def_cfa_offset 44
	popl	%ecx
	.cfi_def_cfa_offset 40
	pushl	%esi
	.cfi_def_cfa_offset 44
	pushl	%eax
	.cfi_def_cfa_offset 48
	call	strcpy@PLT
.LVL475:
.LBE2025:
.LBE2024:
.LBE2023:
	.loc 1 289 0
	popl	%esi
	.cfi_def_cfa_offset 44
	leal	16(%esp), %eax
	pushl	%eax
	.cfi_def_cfa_offset 48
	leal	.LC44@GOTOFF(%ebx), %eax
	pushl	52(%esp)
	.cfi_def_cfa_offset 52
	pushl	$289
	.cfi_def_cfa_offset 56
	pushl	%eax
	.cfi_def_cfa_offset 60
	pushl	60(%esp)
	.cfi_def_cfa_offset 64
	call	_ZN7Runtime9rtThrowExEPKciNS_8RtExTypeEN4kstd6stringE
.LVL476:
.LBB2026:
.LBB2027:
	.loc 2 43 0
	addl	$20, %esp
	.cfi_def_cfa_offset 44
	pushl	16(%esp)
	.cfi_def_cfa_offset 48
	call	kfree@PLT
.LVL477:
.LBE2027:
.LBE2026:
	.loc 1 291 0
	addl	$36, %esp
	.cfi_def_cfa_offset 12
	popl	%ebx
	.cfi_restore 3
	.cfi_def_cfa_offset 8
	popl	%esi
	.cfi_restore 6
	.cfi_def_cfa_offset 4
	ret
	.cfi_endproc
.LFE195:
	.size	_ZN7Runtime11ThrowAndDieENS_8RtExTypeE, .-_ZN7Runtime11ThrowAndDieENS_8RtExTypeE
	.align 2
	.p2align 4,,15
	.globl	_ZN7Runtime14allocGlobalMemEv
	.type	_ZN7Runtime14allocGlobalMemEv, @function
_ZN7Runtime14allocGlobalMemEv:
.LFB203:
	.loc 1 436 0
	.cfi_startproc
.LVL478:
	pushl	%esi
	.cfi_def_cfa_offset 8
	.cfi_offset 6, -8
	pushl	%ebx
	.cfi_def_cfa_offset 12
	.cfi_offset 3, -12
	call	__x86.get_pc_thunk.bx
	addl	$_GLOBAL_OFFSET_TABLE_, %ebx
	subl	$32, %esp
	.cfi_def_cfa_offset 44
.LVL479:
.LBB2033:
.LBB2034:
.LBB2035:
	.loc 2 27 0
	leal	.LC0@GOTOFF(%ebx), %esi
	.loc 2 26 0
	movl	$0, 16(%esp)
	movl	$0, 20(%esp)
	movl	$0, 24(%esp)
	.loc 2 27 0
	pushl	%esi
	.cfi_def_cfa_offset 48
	call	strlen@PLT
.LVL480:
	movl	%eax, 28(%esp)
	.loc 2 28 0
	addl	$1, %eax
	movl	%eax, 24(%esp)
	.loc 2 29 0
	movl	%eax, (%esp)
	call	kmalloc@PLT
.LVL481:
	movl	%eax, 20(%esp)
	.loc 2 30 0
	popl	%edx
	.cfi_def_cfa_offset 44
	popl	%ecx
	.cfi_def_cfa_offset 40
	pushl	%esi
	.cfi_def_cfa_offset 44
	pushl	%eax
	.cfi_def_cfa_offset 48
	call	strcpy@PLT
.LVL482:
.LBE2035:
.LBE2034:
.LBE2033:
	.loc 1 438 0
	popl	%esi
	.cfi_def_cfa_offset 44
	leal	16(%esp), %eax
	pushl	%eax
	.cfi_def_cfa_offset 48
	leal	.LC44@GOTOFF(%ebx), %eax
	pushl	$1
	.cfi_def_cfa_offset 52
	pushl	$438
	.cfi_def_cfa_offset 56
	pushl	%eax
	.cfi_def_cfa_offset 60
	pushl	60(%esp)
	.cfi_def_cfa_offset 64
	call	_ZN7Runtime9rtThrowExEPKciNS_8RtExTypeEN4kstd6stringE
.LVL483:
.LBB2036:
.LBB2037:
	.loc 2 43 0
	addl	$20, %esp
	.cfi_def_cfa_offset 44
	pushl	16(%esp)
	.cfi_def_cfa_offset 48
	call	kfree@PLT
.LVL484:
.LBE2037:
.LBE2036:
	.loc 1 445 0
	addl	$36, %esp
	.cfi_def_cfa_offset 12
	popl	%ebx
	.cfi_restore 3
	.cfi_def_cfa_offset 8
	popl	%esi
	.cfi_restore 6
	.cfi_def_cfa_offset 4
	ret
	.cfi_endproc
.LFE203:
	.size	_ZN7Runtime14allocGlobalMemEv, .-_ZN7Runtime14allocGlobalMemEv
	.section	.rodata.str1.1
.LC49:
	.string	"NOP"
.LC50:
	.string	"DUP"
.LC51:
	.string	"BAND"
.LC52:
	.string	"BOR"
.LC53:
	.string	"ADD"
.LC54:
	.string	"ADDF"
.LC55:
	.string	"SUB"
.LC56:
	.string	"SUBF"
.LC57:
	.string	"MUL"
.LC58:
	.string	"MULF"
.LC59:
	.string	"DIV"
.LC60:
	.string	"DIVF"
.LC61:
	.string	"REM"
.LC62:
	.string	"REMF"
.LC63:
	.string	"CONV_UI8"
.LC64:
	.string	"CONV_I16"
.LC65:
	.string	"CONV_CHR"
.LC66:
	.string	"CONV_I32"
.LC67:
	.string	"CONV_UI32"
.LC68:
	.string	"CONV_I64"
.LC69:
	.string	"CONV_UI64"
.LC70:
	.string	"CONV_F"
.LC71:
	.string	"JMP"
.LC72:
	.string	"JZ"
.LC73:
	.string	"JT"
.LC74:
	.string	"JNZ"
.LC75:
	.string	"JF"
.LC76:
	.string	"JNULL"
.LC77:
	.string	"JNNULL"
.LC78:
	.string	"CALL"
.LC79:
	.string	"NEWARR"
.LC80:
	.string	"LDLOC"
.LC81:
	.string	"LDLOC_0"
.LC82:
	.string	"LDLOC_1"
.LC83:
	.string	"LDLOC_2"
.LC84:
	.string	"STLOC"
.LC85:
	.string	"STLOC_0"
.LC86:
	.string	"STLOC_1"
.LC87:
	.string	"STLOC_2"
.LC88:
	.string	"LDELEM"
.LC89:
	.string	"LDELEM_0"
.LC90:
	.string	"LDELEM_1"
.LC91:
	.string	"LDELEM_2"
.LC92:
	.string	"LD_AREF"
.LC93:
	.string	"LD_BYREF"
.LC94:
	.string	"STELEM"
.LC95:
	.string	"STELEM_0"
.LC96:
	.string	"STELEM_1"
.LC97:
	.string	"STELEM_2"
.LC98:
	.string	"ST_BYREF"
.LC99:
	.string	"LDARG"
.LC100:
	.string	"LDARG_0"
.LC101:
	.string	"LDARG_1"
.LC102:
	.string	"LDARG_2"
.LC103:
	.string	"STARG"
.LC104:
	.string	"STARG_0"
.LC105:
	.string	"STARG_1"
.LC106:
	.string	"STARG_2"
.LC107:
	.string	"LDFLD"
.LC108:
	.string	"LDFLD_0"
.LC109:
	.string	"LDFLD_1"
.LC110:
	.string	"LDFLD_2"
.LC111:
	.string	"STFLD"
.LC112:
	.string	"STFLD_0"
.LC113:
	.string	"STFLD_1"
.LC114:
	.string	"STFLD_2"
.LC115:
	.string	"LD_0"
.LC116:
	.string	"LD_1"
.LC117:
	.string	"LD_2"
.LC118:
	.string	"LD_0U"
.LC119:
	.string	"LD_1U"
.LC120:
	.string	"LD_2U"
.LC121:
	.string	"LD_STR"
.LC122:
	.string	"LD_UI8"
.LC123:
	.string	"LD_I16"
.LC124:
	.string	"LD_CHR"
.LC125:
	.string	"LD_I32"
.LC126:
	.string	"LD_UI32"
.LC127:
	.string	"LD_I64"
.LC128:
	.string	"LD_UI64"
.LC129:
	.string	"LD_F"
.LC130:
	.string	"LD_TRUE"
.LC131:
	.string	"LD_FALSE"
.LC132:
	.string	"LD_NULL"
.LC133:
	.string	"AND"
.LC134:
	.string	"OR"
.LC135:
	.string	"EQ"
.LC136:
	.string	"NEQ"
.LC137:
	.string	"NOT"
.LC138:
	.string	"INV"
.LC139:
	.string	"XOR"
.LC140:
	.string	"NEG"
.LC141:
	.string	"POS"
.LC142:
	.string	"INC"
.LC143:
	.string	"DEC"
.LC144:
	.string	"SHL"
.LC145:
	.string	"SHR"
.LC146:
	.string	"POP"
.LC147:
	.string	"GT"
.LC148:
	.string	"GTE"
.LC149:
	.string	"LT"
.LC150:
	.string	"LTE"
.LC151:
	.string	"SIZEOF"
.LC152:
	.string	"TYPEOF"
.LC153:
	.string	"RET"
.LC154:
	.string	"CALL_INTERNAL"
.LC155:
	.string	"BREAK"
.LC156:
	.string	"UNDEFINED"
	.text
	.align 2
	.p2align 4,,15
	.globl	_ZN7Runtime11OpcodeToStrE6OpCode
	.type	_ZN7Runtime11OpcodeToStrE6OpCode, @function
_ZN7Runtime11OpcodeToStrE6OpCode:
.LFB206:
	.loc 1 2699 0
	.cfi_startproc
.LVL485:
	.loc 1 2699 0
	movl	4(%esp), %eax
	call	__x86.get_pc_thunk.dx
	addl	$_GLOBAL_OFFSET_TABLE_, %edx
	.loc 1 2700 0
	cmpb	$106, %al
	ja	.L201
	movzbl	%al, %eax
	movl	.L203@GOTOFF(%edx,%eax,4), %ecx
	addl	%edx, %ecx
	jmp	*%ecx
	.section	.rodata
	.align 4
	.align 4
.L203:
	.long	.L310@GOTOFF
	.long	.L204@GOTOFF
	.long	.L205@GOTOFF
	.long	.L206@GOTOFF
	.long	.L207@GOTOFF
	.long	.L208@GOTOFF
	.long	.L209@GOTOFF
	.long	.L210@GOTOFF
	.long	.L211@GOTOFF
	.long	.L212@GOTOFF
	.long	.L213@GOTOFF
	.long	.L214@GOTOFF
	.long	.L215@GOTOFF
	.long	.L216@GOTOFF
	.long	.L217@GOTOFF
	.long	.L218@GOTOFF
	.long	.L219@GOTOFF
	.long	.L220@GOTOFF
	.long	.L221@GOTOFF
	.long	.L222@GOTOFF
	.long	.L223@GOTOFF
	.long	.L224@GOTOFF
	.long	.L225@GOTOFF
	.long	.L226@GOTOFF
	.long	.L227@GOTOFF
	.long	.L228@GOTOFF
	.long	.L229@GOTOFF
	.long	.L230@GOTOFF
	.long	.L231@GOTOFF
	.long	.L232@GOTOFF
	.long	.L233@GOTOFF
	.long	.L234@GOTOFF
	.long	.L235@GOTOFF
	.long	.L236@GOTOFF
	.long	.L237@GOTOFF
	.long	.L238@GOTOFF
	.long	.L239@GOTOFF
	.long	.L240@GOTOFF
	.long	.L241@GOTOFF
	.long	.L242@GOTOFF
	.long	.L243@GOTOFF
	.long	.L244@GOTOFF
	.long	.L245@GOTOFF
	.long	.L246@GOTOFF
	.long	.L247@GOTOFF
	.long	.L248@GOTOFF
	.long	.L249@GOTOFF
	.long	.L250@GOTOFF
	.long	.L251@GOTOFF
	.long	.L252@GOTOFF
	.long	.L253@GOTOFF
	.long	.L254@GOTOFF
	.long	.L255@GOTOFF
	.long	.L256@GOTOFF
	.long	.L257@GOTOFF
	.long	.L258@GOTOFF
	.long	.L259@GOTOFF
	.long	.L260@GOTOFF
	.long	.L261@GOTOFF
	.long	.L262@GOTOFF
	.long	.L263@GOTOFF
	.long	.L264@GOTOFF
	.long	.L265@GOTOFF
	.long	.L266@GOTOFF
	.long	.L267@GOTOFF
	.long	.L268@GOTOFF
	.long	.L269@GOTOFF
	.long	.L270@GOTOFF
	.long	.L271@GOTOFF
	.long	.L272@GOTOFF
	.long	.L273@GOTOFF
	.long	.L274@GOTOFF
	.long	.L275@GOTOFF
	.long	.L276@GOTOFF
	.long	.L277@GOTOFF
	.long	.L278@GOTOFF
	.long	.L279@GOTOFF
	.long	.L280@GOTOFF
	.long	.L281@GOTOFF
	.long	.L282@GOTOFF
	.long	.L283@GOTOFF
	.long	.L284@GOTOFF
	.long	.L285@GOTOFF
	.long	.L286@GOTOFF
	.long	.L287@GOTOFF
	.long	.L288@GOTOFF
	.long	.L289@GOTOFF
	.long	.L290@GOTOFF
	.long	.L291@GOTOFF
	.long	.L292@GOTOFF
	.long	.L293@GOTOFF
	.long	.L294@GOTOFF
	.long	.L295@GOTOFF
	.long	.L296@GOTOFF
	.long	.L297@GOTOFF
	.long	.L298@GOTOFF
	.long	.L299@GOTOFF
	.long	.L300@GOTOFF
	.long	.L301@GOTOFF
	.long	.L302@GOTOFF
	.long	.L303@GOTOFF
	.long	.L304@GOTOFF
	.long	.L305@GOTOFF
	.long	.L306@GOTOFF
	.long	.L307@GOTOFF
	.long	.L308@GOTOFF
	.long	.L309@GOTOFF
	.text
.L308:
	.loc 1 2912 0
	leal	.LC154@GOTOFF(%edx), %eax
	ret
.L307:
	.loc 1 2910 0
	leal	.LC153@GOTOFF(%edx), %eax
	ret
.L306:
	.loc 1 2908 0
	leal	.LC152@GOTOFF(%edx), %eax
	ret
.L305:
	.loc 1 2906 0
	leal	.LC151@GOTOFF(%edx), %eax
	ret
.L304:
	.loc 1 2904 0
	leal	.LC150@GOTOFF(%edx), %eax
	ret
.L303:
	.loc 1 2902 0
	leal	.LC149@GOTOFF(%edx), %eax
	ret
.L302:
	.loc 1 2900 0
	leal	.LC148@GOTOFF(%edx), %eax
	ret
.L301:
	.loc 1 2898 0
	leal	.LC147@GOTOFF(%edx), %eax
	ret
.L300:
	.loc 1 2896 0
	leal	.LC146@GOTOFF(%edx), %eax
	ret
.L299:
	.loc 1 2894 0
	leal	.LC145@GOTOFF(%edx), %eax
	ret
.L298:
	.loc 1 2892 0
	leal	.LC144@GOTOFF(%edx), %eax
	ret
.L297:
	.loc 1 2890 0
	leal	.LC143@GOTOFF(%edx), %eax
	ret
.L296:
	.loc 1 2888 0
	leal	.LC142@GOTOFF(%edx), %eax
	ret
.L295:
	.loc 1 2886 0
	leal	.LC141@GOTOFF(%edx), %eax
	ret
.L294:
	.loc 1 2884 0
	leal	.LC140@GOTOFF(%edx), %eax
	ret
.L293:
	.loc 1 2882 0
	leal	.LC139@GOTOFF(%edx), %eax
	ret
.L292:
	.loc 1 2880 0
	leal	.LC138@GOTOFF(%edx), %eax
	ret
.L291:
	.loc 1 2878 0
	leal	.LC137@GOTOFF(%edx), %eax
	ret
.L290:
	.loc 1 2876 0
	leal	.LC136@GOTOFF(%edx), %eax
	ret
.L289:
	.loc 1 2874 0
	leal	.LC135@GOTOFF(%edx), %eax
	ret
.L288:
	.loc 1 2872 0
	leal	.LC134@GOTOFF(%edx), %eax
	ret
.L287:
	.loc 1 2870 0
	leal	.LC133@GOTOFF(%edx), %eax
	ret
.L286:
	.loc 1 2868 0
	leal	.LC132@GOTOFF(%edx), %eax
	ret
.L285:
	.loc 1 2866 0
	leal	.LC131@GOTOFF(%edx), %eax
	ret
.L284:
	.loc 1 2864 0
	leal	.LC130@GOTOFF(%edx), %eax
	ret
.L283:
	.loc 1 2862 0
	leal	.LC129@GOTOFF(%edx), %eax
	ret
.L282:
	.loc 1 2860 0
	leal	.LC128@GOTOFF(%edx), %eax
	ret
.L281:
	.loc 1 2858 0
	leal	.LC127@GOTOFF(%edx), %eax
	ret
.L280:
	.loc 1 2856 0
	leal	.LC126@GOTOFF(%edx), %eax
	ret
.L279:
	.loc 1 2854 0
	leal	.LC125@GOTOFF(%edx), %eax
	ret
.L278:
	.loc 1 2852 0
	leal	.LC124@GOTOFF(%edx), %eax
	ret
.L277:
	.loc 1 2850 0
	leal	.LC123@GOTOFF(%edx), %eax
	ret
.L276:
	.loc 1 2848 0
	leal	.LC122@GOTOFF(%edx), %eax
	ret
.L275:
	.loc 1 2846 0
	leal	.LC121@GOTOFF(%edx), %eax
	ret
.L274:
	.loc 1 2844 0
	leal	.LC120@GOTOFF(%edx), %eax
	ret
.L273:
	.loc 1 2842 0
	leal	.LC119@GOTOFF(%edx), %eax
	ret
.L272:
	.loc 1 2840 0
	leal	.LC118@GOTOFF(%edx), %eax
	ret
.L271:
	.loc 1 2838 0
	leal	.LC117@GOTOFF(%edx), %eax
	ret
.L270:
	.loc 1 2836 0
	leal	.LC116@GOTOFF(%edx), %eax
	ret
.L269:
	.loc 1 2834 0
	leal	.LC115@GOTOFF(%edx), %eax
	ret
.L268:
	.loc 1 2832 0
	leal	.LC114@GOTOFF(%edx), %eax
	ret
.L267:
	.loc 1 2830 0
	leal	.LC113@GOTOFF(%edx), %eax
	ret
.L266:
	.loc 1 2828 0
	leal	.LC112@GOTOFF(%edx), %eax
	ret
.L265:
	.loc 1 2826 0
	leal	.LC111@GOTOFF(%edx), %eax
	ret
.L264:
	.loc 1 2824 0
	leal	.LC110@GOTOFF(%edx), %eax
	ret
.L263:
	.loc 1 2822 0
	leal	.LC109@GOTOFF(%edx), %eax
	ret
.L262:
	.loc 1 2820 0
	leal	.LC108@GOTOFF(%edx), %eax
	ret
.L261:
	.loc 1 2818 0
	leal	.LC107@GOTOFF(%edx), %eax
	ret
.L260:
	.loc 1 2816 0
	leal	.LC106@GOTOFF(%edx), %eax
	ret
.L259:
	.loc 1 2814 0
	leal	.LC105@GOTOFF(%edx), %eax
	ret
.L258:
	.loc 1 2812 0
	leal	.LC104@GOTOFF(%edx), %eax
	ret
.L257:
	.loc 1 2810 0
	leal	.LC103@GOTOFF(%edx), %eax
	ret
.L256:
	.loc 1 2808 0
	leal	.LC102@GOTOFF(%edx), %eax
	ret
.L255:
	.loc 1 2806 0
	leal	.LC101@GOTOFF(%edx), %eax
	ret
.L254:
	.loc 1 2804 0
	leal	.LC100@GOTOFF(%edx), %eax
	ret
.L253:
	.loc 1 2802 0
	leal	.LC99@GOTOFF(%edx), %eax
	ret
.L252:
	.loc 1 2800 0
	leal	.LC98@GOTOFF(%edx), %eax
	ret
.L251:
	.loc 1 2798 0
	leal	.LC97@GOTOFF(%edx), %eax
	ret
.L250:
	.loc 1 2796 0
	leal	.LC96@GOTOFF(%edx), %eax
	ret
.L249:
	.loc 1 2794 0
	leal	.LC95@GOTOFF(%edx), %eax
	ret
.L248:
	.loc 1 2792 0
	leal	.LC94@GOTOFF(%edx), %eax
	ret
.L247:
	.loc 1 2790 0
	leal	.LC93@GOTOFF(%edx), %eax
	ret
.L246:
	.loc 1 2788 0
	leal	.LC92@GOTOFF(%edx), %eax
	ret
.L245:
	.loc 1 2786 0
	leal	.LC91@GOTOFF(%edx), %eax
	ret
.L244:
	.loc 1 2784 0
	leal	.LC90@GOTOFF(%edx), %eax
	ret
.L243:
	.loc 1 2782 0
	leal	.LC89@GOTOFF(%edx), %eax
	ret
.L242:
	.loc 1 2780 0
	leal	.LC88@GOTOFF(%edx), %eax
	ret
.L241:
	.loc 1 2778 0
	leal	.LC87@GOTOFF(%edx), %eax
	ret
.L240:
	.loc 1 2776 0
	leal	.LC86@GOTOFF(%edx), %eax
	ret
.L239:
	.loc 1 2774 0
	leal	.LC85@GOTOFF(%edx), %eax
	ret
.L238:
	.loc 1 2772 0
	leal	.LC84@GOTOFF(%edx), %eax
	ret
.L237:
	.loc 1 2770 0
	leal	.LC83@GOTOFF(%edx), %eax
	ret
.L236:
	.loc 1 2768 0
	leal	.LC82@GOTOFF(%edx), %eax
	ret
.L235:
	.loc 1 2766 0
	leal	.LC81@GOTOFF(%edx), %eax
	ret
.L234:
	.loc 1 2764 0
	leal	.LC80@GOTOFF(%edx), %eax
	ret
.L233:
	.loc 1 2762 0
	leal	.LC79@GOTOFF(%edx), %eax
	ret
.L232:
	.loc 1 2760 0
	leal	.LC78@GOTOFF(%edx), %eax
	ret
.L231:
	.loc 1 2758 0
	leal	.LC77@GOTOFF(%edx), %eax
	ret
.L230:
	.loc 1 2756 0
	leal	.LC76@GOTOFF(%edx), %eax
	ret
.L229:
	.loc 1 2754 0
	leal	.LC75@GOTOFF(%edx), %eax
	ret
.L228:
	.loc 1 2752 0
	leal	.LC74@GOTOFF(%edx), %eax
	ret
.L227:
	.loc 1 2750 0
	leal	.LC73@GOTOFF(%edx), %eax
	ret
.L226:
	.loc 1 2748 0
	leal	.LC72@GOTOFF(%edx), %eax
	ret
.L225:
	.loc 1 2746 0
	leal	.LC71@GOTOFF(%edx), %eax
	ret
.L224:
	.loc 1 2744 0
	leal	.LC70@GOTOFF(%edx), %eax
	ret
.L223:
	.loc 1 2742 0
	leal	.LC69@GOTOFF(%edx), %eax
	ret
.L222:
	.loc 1 2740 0
	leal	.LC68@GOTOFF(%edx), %eax
	ret
.L221:
	.loc 1 2738 0
	leal	.LC67@GOTOFF(%edx), %eax
	ret
.L220:
	.loc 1 2736 0
	leal	.LC66@GOTOFF(%edx), %eax
	ret
.L219:
	.loc 1 2734 0
	leal	.LC65@GOTOFF(%edx), %eax
	ret
.L218:
	.loc 1 2732 0
	leal	.LC64@GOTOFF(%edx), %eax
	ret
.L217:
	.loc 1 2730 0
	leal	.LC63@GOTOFF(%edx), %eax
	ret
.L216:
	.loc 1 2728 0
	leal	.LC62@GOTOFF(%edx), %eax
	ret
.L215:
	.loc 1 2726 0
	leal	.LC61@GOTOFF(%edx), %eax
	ret
.L214:
	.loc 1 2724 0
	leal	.LC60@GOTOFF(%edx), %eax
	ret
.L213:
	.loc 1 2722 0
	leal	.LC59@GOTOFF(%edx), %eax
	ret
.L212:
	.loc 1 2720 0
	leal	.LC58@GOTOFF(%edx), %eax
	ret
.L211:
	.loc 1 2718 0
	leal	.LC57@GOTOFF(%edx), %eax
	ret
.L210:
	.loc 1 2716 0
	leal	.LC56@GOTOFF(%edx), %eax
	ret
.L209:
	.loc 1 2714 0
	leal	.LC55@GOTOFF(%edx), %eax
	ret
.L208:
	.loc 1 2712 0
	leal	.LC54@GOTOFF(%edx), %eax
	ret
.L207:
	.loc 1 2710 0
	leal	.LC53@GOTOFF(%edx), %eax
	ret
.L206:
	.loc 1 2708 0
	leal	.LC52@GOTOFF(%edx), %eax
	ret
.L205:
	.loc 1 2706 0
	leal	.LC51@GOTOFF(%edx), %eax
	ret
.L204:
	.loc 1 2704 0
	leal	.LC50@GOTOFF(%edx), %eax
	ret
.L310:
	.loc 1 2702 0
	leal	.LC49@GOTOFF(%edx), %eax
	.loc 1 2920 0
	ret
.L309:
	.loc 1 2914 0
	leal	.LC155@GOTOFF(%edx), %eax
	ret
.L201:
	.loc 1 2917 0
	leal	.LC156@GOTOFF(%edx), %eax
	ret
	.cfi_endproc
.LFE206:
	.size	_ZN7Runtime11OpcodeToStrE6OpCode, .-_ZN7Runtime11OpcodeToStrE6OpCode
	.section	.rodata.str1.4
	.align 4
.LC157:
	.string	"bytecode of non-native function is empty"
	.section	.rodata.str1.1
.LC158:
	.string	" with "
	.globl	__divdi3
	.globl	__udivdi3
	.globl	__umoddi3
	.globl	__moddi3
.LC162:
	.string	"\nUnknown instruction "
.LC163:
	.string	"  address: "
.LC164:
	.string	"Call stack:\n"
	.text
	.align 2
	.p2align 4,,15
	.globl	_ZN7Runtime12execFunctionEP8FunctionPhS2_
	.type	_ZN7Runtime12execFunctionEP8FunctionPhS2_, @function
_ZN7Runtime12execFunctionEP8FunctionPhS2_:
.LFB205:
	.loc 1 530 0
	.cfi_startproc
.LVL486:
	pushl	%ebp
	.cfi_def_cfa_offset 8
	.cfi_offset 5, -8
	pushl	%edi
	.cfi_def_cfa_offset 12
	.cfi_offset 7, -12
	pushl	%esi
	.cfi_def_cfa_offset 16
	.cfi_offset 6, -16
	pushl	%ebx
	.cfi_def_cfa_offset 20
	.cfi_offset 3, -20
	call	__x86.get_pc_thunk.bx
	addl	$_GLOBAL_OFFSET_TABLE_, %ebx
	subl	$124, %esp
	.cfi_def_cfa_offset 144
	.loc 1 547 0
	movl	148(%esp), %eax
	.loc 1 530 0
	movl	144(%esp), %edi
	.loc 1 547 0
	movl	(%eax), %ebp
.LVL487:
	.loc 1 548 0
	testl	%ebp, %ebp
	je	.L968
.L312:
.LBB2739:
	.loc 1 557 0
	movl	148(%esp), %eax
	addl	$22, %eax
	movl	%eax, 16(%esp)
	.loc 1 569 0
	leal	92(%esp), %eax
	movl	%eax, 20(%esp)
.LVL488:
	.p2align 4,,10
	.p2align 3
.L313:
	.loc 1 557 0
	cmpb	$0, 556(%edi)
	.loc 1 555 0
	movl	%ebp, 36(%edi)
	.loc 1 557 0
	je	.L315
	.loc 1 557 0 is_stmt 0 discriminator 1
	cmpb	$0, 557(%edi)
	jne	.L316
	.loc 1 559 0 is_stmt 1
	movl	560(%edi), %eax
	testl	%eax, %eax
	jle	.L318
.L317:
	.loc 1 561 0
	cmpl	568(%edi), %ebp
	je	.L969
.L321:
.LVL489:
.LBB2740:
.LBB2741:
	.loc 2 27 0
	subl	$12, %esp
	.cfi_def_cfa_offset 156
	pushl	28(%esp)
	.cfi_def_cfa_offset 160
	call	strlen@PLT
.LVL490:
	.loc 2 28 0
	addl	$1, %eax
	.loc 2 29 0
	movl	%eax, (%esp)
	call	kmalloc@PLT
.LVL491:
	movl	%eax, %esi
	.loc 2 30 0
	popl	%eax
	.cfi_def_cfa_offset 156
	popl	%edx
	.cfi_def_cfa_offset 152
	pushl	24(%esp)
	.cfi_def_cfa_offset 156
	pushl	%esi
	.cfi_def_cfa_offset 160
	call	strcpy@PLT
.LVL492:
.LBE2741:
.LBE2740:
.LBB2742:
.LBB2743:
	.loc 2 145 0
	popl	%ecx
	.cfi_def_cfa_offset 156
	popl	%eax
	.cfi_def_cfa_offset 152
	pushl	%esi
	.cfi_def_cfa_offset 156
	pushl	572(%edi)
	.cfi_def_cfa_offset 160
	call	strcmp@PLT
.LVL493:
.LBE2743:
.LBE2742:
.LBB2745:
.LBB2746:
	.loc 2 43 0
	movl	%esi, (%esp)
.LBE2746:
.LBE2745:
.LBB2748:
.LBB2744:
	.loc 2 145 0
	movl	%eax, 24(%esp)
.LVL494:
.LBE2744:
.LBE2748:
.LBB2749:
.LBB2747:
	.loc 2 43 0
	call	kfree@PLT
.LVL495:
.LBE2747:
.LBE2749:
	.loc 1 564 0
	addl	$16, %esp
	.cfi_def_cfa_offset 144
	movl	8(%esp), %eax
	testl	%eax, %eax
	je	.L857
	.loc 1 578 0
	movl	560(%edi), %eax
	testl	%eax, %eax
	js	.L970
.LVL496:
	.p2align 4,,10
	.p2align 3
.L315:
.LBB2750:
	.loc 1 582 0
	movzbl	0(%ebp), %eax
	cmpb	$106, %al
	ja	.L326
	movzbl	%al, %edx
	movl	.L328@GOTOFF(%ebx,%edx,4), %ecx
	addl	%ebx, %ecx
	jmp	*%ecx
	.section	.rodata
	.align 4
	.align 4
.L328:
	.long	.L942@GOTOFF
	.long	.L329@GOTOFF
	.long	.L326@GOTOFF
	.long	.L326@GOTOFF
	.long	.L330@GOTOFF
	.long	.L331@GOTOFF
	.long	.L332@GOTOFF
	.long	.L333@GOTOFF
	.long	.L334@GOTOFF
	.long	.L335@GOTOFF
	.long	.L336@GOTOFF
	.long	.L337@GOTOFF
	.long	.L338@GOTOFF
	.long	.L339@GOTOFF
	.long	.L340@GOTOFF
	.long	.L341@GOTOFF
	.long	.L342@GOTOFF
	.long	.L343@GOTOFF
	.long	.L344@GOTOFF
	.long	.L345@GOTOFF
	.long	.L346@GOTOFF
	.long	.L347@GOTOFF
	.long	.L348@GOTOFF
	.long	.L349@GOTOFF
	.long	.L350@GOTOFF
	.long	.L350@GOTOFF
	.long	.L349@GOTOFF
	.long	.L351@GOTOFF
	.long	.L351@GOTOFF
	.long	.L352@GOTOFF
	.long	.L353@GOTOFF
	.long	.L354@GOTOFF
	.long	.L355@GOTOFF
	.long	.L356@GOTOFF
	.long	.L357@GOTOFF
	.long	.L358@GOTOFF
	.long	.L359@GOTOFF
	.long	.L360@GOTOFF
	.long	.L361@GOTOFF
	.long	.L362@GOTOFF
	.long	.L326@GOTOFF
	.long	.L326@GOTOFF
	.long	.L326@GOTOFF
	.long	.L363@GOTOFF
	.long	.L364@GOTOFF
	.long	.L365@GOTOFF
	.long	.L326@GOTOFF
	.long	.L326@GOTOFF
	.long	.L326@GOTOFF
	.long	.L366@GOTOFF
	.long	.L367@GOTOFF
	.long	.L368@GOTOFF
	.long	.L369@GOTOFF
	.long	.L370@GOTOFF
	.long	.L371@GOTOFF
	.long	.L372@GOTOFF
	.long	.L373@GOTOFF
	.long	.L374@GOTOFF
	.long	.L375@GOTOFF
	.long	.L376@GOTOFF
	.long	.L377@GOTOFF
	.long	.L378@GOTOFF
	.long	.L379@GOTOFF
	.long	.L380@GOTOFF
	.long	.L381@GOTOFF
	.long	.L382@GOTOFF
	.long	.L383@GOTOFF
	.long	.L384@GOTOFF
	.long	.L385@GOTOFF
	.long	.L386@GOTOFF
	.long	.L387@GOTOFF
	.long	.L388@GOTOFF
	.long	.L389@GOTOFF
	.long	.L390@GOTOFF
	.long	.L391@GOTOFF
	.long	.L392@GOTOFF
	.long	.L393@GOTOFF
	.long	.L394@GOTOFF
	.long	.L395@GOTOFF
	.long	.L396@GOTOFF
	.long	.L397@GOTOFF
	.long	.L398@GOTOFF
	.long	.L399@GOTOFF
	.long	.L400@GOTOFF
	.long	.L401@GOTOFF
	.long	.L402@GOTOFF
	.long	.L403@GOTOFF
	.long	.L404@GOTOFF
	.long	.L405@GOTOFF
	.long	.L406@GOTOFF
	.long	.L407@GOTOFF
	.long	.L408@GOTOFF
	.long	.L409@GOTOFF
	.long	.L410@GOTOFF
	.long	.L411@GOTOFF
	.long	.L412@GOTOFF
	.long	.L413@GOTOFF
	.long	.L414@GOTOFF
	.long	.L415@GOTOFF
	.long	.L416@GOTOFF
	.long	.L417@GOTOFF
	.long	.L418@GOTOFF
	.long	.L419@GOTOFF
	.long	.L326@GOTOFF
	.long	.L939@GOTOFF
	.long	.L326@GOTOFF
	.long	.L942@GOTOFF
	.text
.LVL497:
.L867:
.LBB2751:
.LBB2752:
.LBB2753:
.LBB2754:
.LBB2755:
	.loc 4 487 0
	movl	$2, %esi
.L646:
.LVL498:
.LBE2755:
.LBE2754:
	.loc 1 3060 0
	cmpb	$19, 8(%esp)
	je	.L971
.L648:
	movb	%cl, 8(%esp)
	.loc 1 3067 0
	subl	$4, %esp
	.cfi_def_cfa_offset 148
	pushl	%esi
	.cfi_def_cfa_offset 152
	pushl	32(%esp)
	.cfi_def_cfa_offset 156
	pushl	52(%esp)
	.cfi_def_cfa_offset 160
	call	memcpy@PLT
.LVL499:
	addl	$16, %esp
	.cfi_def_cfa_offset 144
	movzbl	8(%esp), %ecx
	cmpb	$13, %cl
	ja	.L649
	movl	$1, %edx
.LBB2761:
.LBB2762:
	.loc 4 525 0
	movl	$4, %eax
	sall	%cl, %edx
	testl	$14972, %edx
	jne	.L650
	andl	$1408, %edx
	.loc 4 522 0
	movl	$8, %eax
	jne	.L650
.L649:
	.loc 4 525 0
	xorl	%eax, %eax
	testb	$16, %cl
	setne	%al
	sall	$2, %eax
.LVL500:
.L650:
.LBE2762:
.LBE2761:
	.loc 1 3068 0
	addl	20(%edi), %eax
	movl	%eax, 20(%edi)
	movb	%cl, (%eax)
.LVL501:
	.p2align 4,,10
	.p2align 3
.L942:
.LBE2753:
.LBE2752:
.LBB2773:
.LBB2774:
.LBB2775:
.LBB2776:
	.loc 1 969 0
	addl	$1, %ebp
.LVL502:
	.loc 1 970 0
	jmp	.L313
	.p2align 4,,10
	.p2align 3
.L939:
.LBE2776:
.LBE2775:
.LBE2774:
.LBE2773:
.LBE2751:
.LBE2750:
.LBE2739:
	.loc 1 2696 0
	addl	$124, %esp
	.cfi_remember_state
	.cfi_def_cfa_offset 20
	popl	%ebx
	.cfi_restore 3
	.cfi_def_cfa_offset 16
	popl	%esi
	.cfi_restore 6
	.cfi_def_cfa_offset 12
	popl	%edi
	.cfi_restore 7
	.cfi_def_cfa_offset 8
	popl	%ebp
	.cfi_restore 5
	.cfi_def_cfa_offset 4
.LVL503:
	ret
.LVL504:
	.p2align 4,,10
	.p2align 3
.L419:
	.cfi_restore_state
.LBB4372:
.LBB4340:
.LBB4337:
.LBB3055:
	.loc 1 2443 0
	movzbl	1(%ebp), %ecx
	leal	1(%ebp), %edx
.LVL505:
	cmpb	$10, %cl
	jbe	.L972
.L786:
	.loc 1 2451 0
	movl	20(%edi), %eax
	subl	$4, %eax
.L787:
.LVL506:
.LBB3056:
.LBB3057:
	.loc 4 482 0
	cmpb	$13, %cl
	ja	.L788
	movzbl	%cl, %esi
	movl	.L790@GOTOFF(%ebx,%esi,4), %ebp
	addl	%ebx, %ebp
	jmp	*%ebp
	.section	.rodata
	.align 4
	.align 4
.L790:
	.long	.L788@GOTOFF
	.long	.L788@GOTOFF
	.long	.L789@GOTOFF
	.long	.L791@GOTOFF
	.long	.L886@GOTOFF
	.long	.L791@GOTOFF
	.long	.L791@GOTOFF
	.long	.L793@GOTOFF
	.long	.L793@GOTOFF
	.long	.L789@GOTOFF
	.long	.L793@GOTOFF
	.long	.L791@GOTOFF
	.long	.L791@GOTOFF
	.long	.L791@GOTOFF
	.text
.LVL507:
	.p2align 4,,10
	.p2align 3
.L418:
.LBE3057:
.LBE3056:
.LBE3055:
.LBB3064:
	.loc 1 1749 0
	movl	20(%edi), %eax
.LVL508:
.LBB3065:
	.loc 1 1750 0
	cmpb	$10, (%eax)
	ja	.L694
	movzbl	(%eax), %edx
	movl	.L696@GOTOFF(%ebx,%edx,4), %esi
	addl	%ebx, %esi
	jmp	*%esi
	.section	.rodata
	.align 4
	.align 4
.L696:
	.long	.L694@GOTOFF
	.long	.L694@GOTOFF
	.long	.L695@GOTOFF
	.long	.L697@GOTOFF
	.long	.L698@GOTOFF
	.long	.L699@GOTOFF
	.long	.L700@GOTOFF
	.long	.L701@GOTOFF
	.long	.L702@GOTOFF
	.long	.L694@GOTOFF
	.long	.L703@GOTOFF
	.text
.LVL509:
	.p2align 4,,10
	.p2align 3
.L408:
.LBE3065:
.LBE3064:
	.loc 1 1927 0
	movl	20(%edi), %eax
	cmpb	$10, (%eax)
	ja	.L718
	movzbl	(%eax), %edx
	movl	.L720@GOTOFF(%ebx,%edx,4), %ecx
	addl	%ebx, %ecx
	jmp	*%ecx
	.section	.rodata
	.align 4
	.align 4
.L720:
	.long	.L718@GOTOFF
	.long	.L718@GOTOFF
	.long	.L719@GOTOFF
	.long	.L719@GOTOFF
	.long	.L721@GOTOFF
	.long	.L719@GOTOFF
	.long	.L721@GOTOFF
	.long	.L722@GOTOFF
	.long	.L723@GOTOFF
	.long	.L718@GOTOFF
	.long	.L724@GOTOFF
	.text
	.p2align 4,,10
	.p2align 3
.L407:
.LBB3091:
	.loc 1 2602 0
	movl	20(%edi), %eax
.LVL510:
.LBB3092:
	.loc 1 2603 0
	cmpb	$9, (%eax)
	ja	.L845
	movzbl	(%eax), %edx
	movl	.L847@GOTOFF(%ebx,%edx,4), %esi
	addl	%ebx, %esi
	jmp	*%esi
	.section	.rodata
	.align 4
	.align 4
.L847:
	.long	.L845@GOTOFF
	.long	.L845@GOTOFF
	.long	.L846@GOTOFF
	.long	.L848@GOTOFF
	.long	.L849@GOTOFF
	.long	.L850@GOTOFF
	.long	.L851@GOTOFF
	.long	.L852@GOTOFF
	.long	.L853@GOTOFF
	.long	.L854@GOTOFF
	.text
.LVL511:
	.p2align 4,,10
	.p2align 3
.L406:
.LBE3092:
.LBE3091:
	.loc 1 1407 0
	movl	20(%edi), %eax
	movzbl	-4(%eax), %ecx
	.loc 1 1408 0
	cmpb	$8, (%eax)
	.loc 1 1407 0
	movl	%ecx, %edx
	notl	%edx
	movl	%edx, 8(%esp)
	movl	%edx, -4(%eax)
	.loc 1 1408 0
	ja	.L614
	movzbl	(%eax), %esi
	movl	.L616@GOTOFF(%ebx,%esi,4), %edx
	addl	%ebx, %edx
	jmp	*%edx
	.section	.rodata
	.align 4
	.align 4
.L616:
	.long	.L614@GOTOFF
	.long	.L614@GOTOFF
	.long	.L615@GOTOFF
	.long	.L617@GOTOFF
	.long	.L618@GOTOFF
	.long	.L619@GOTOFF
	.long	.L620@GOTOFF
	.long	.L621@GOTOFF
	.long	.L622@GOTOFF
	.text
	.p2align 4,,10
	.p2align 3
.L405:
	.loc 1 2101 0
	movl	20(%edi), %edx
.LBB3119:
.LBB2966:
.LBB2878:
.LBB2777:
	.loc 1 969 0
	addl	$1, %ebp
.LVL512:
.LBE2777:
.LBE2878:
.LBE2966:
.LBE3119:
	.loc 1 2101 0
	movzbl	-4(%edx), %eax
	xorl	$1, %eax
	movzbl	%al, %eax
	movl	%eax, -4(%edx)
	jmp	.L313
	.p2align 4,,10
	.p2align 3
.L404:
.LBB3120:
	.loc 1 1958 0
	movl	20(%edi), %esi
.LVL513:
.LBB3121:
	.loc 1 1960 0
	cmpb	$11, (%esi)
	ja	.L725
	movzbl	(%esi), %eax
	movl	.L727@GOTOFF(%ebx,%eax,4), %ecx
	addl	%ebx, %ecx
	jmp	*%ecx
	.section	.rodata
	.align 4
	.align 4
.L727:
	.long	.L726@GOTOFF
	.long	.L725@GOTOFF
	.long	.L729@GOTOFF
	.long	.L729@GOTOFF
	.long	.L730@GOTOFF
	.long	.L732@GOTOFF
	.long	.L732@GOTOFF
	.long	.L733@GOTOFF
	.long	.L733@GOTOFF
	.long	.L735@GOTOFF
	.long	.L736@GOTOFF
	.long	.L737@GOTOFF
	.text
.LVL514:
	.p2align 4,,10
	.p2align 3
.L403:
.LBE3121:
.LBE3120:
.LBB3149:
	.loc 1 1085 0
	movl	20(%edi), %esi
.LVL515:
.LBB3150:
	.loc 1 1086 0
	cmpb	$11, (%esi)
	ja	.L560
	movzbl	(%esi), %eax
	movl	.L562@GOTOFF(%ebx,%eax,4), %ecx
	addl	%ebx, %ecx
	jmp	*%ecx
	.section	.rodata
	.align 4
	.align 4
.L562:
	.long	.L561@GOTOFF
	.long	.L560@GOTOFF
	.long	.L564@GOTOFF
	.long	.L564@GOTOFF
	.long	.L565@GOTOFF
	.long	.L567@GOTOFF
	.long	.L567@GOTOFF
	.long	.L568@GOTOFF
	.long	.L568@GOTOFF
	.long	.L570@GOTOFF
	.long	.L571@GOTOFF
	.long	.L572@GOTOFF
	.text
.LVL516:
	.p2align 4,,10
	.p2align 3
.L402:
.LBE3150:
.LBE3149:
.LBB3176:
	.loc 1 2105 0
	movl	20(%edi), %eax
.LVL517:
.LBB3177:
	.loc 1 2106 0
	cmpb	$9, (%eax)
	ja	.L747
	movzbl	(%eax), %edx
	movl	.L749@GOTOFF(%ebx,%edx,4), %esi
	addl	%ebx, %esi
	jmp	*%esi
	.section	.rodata
	.align 4
	.align 4
.L749:
	.long	.L747@GOTOFF
	.long	.L747@GOTOFF
	.long	.L748@GOTOFF
	.long	.L750@GOTOFF
	.long	.L751@GOTOFF
	.long	.L752@GOTOFF
	.long	.L753@GOTOFF
	.long	.L754@GOTOFF
	.long	.L755@GOTOFF
	.long	.L756@GOTOFF
	.text
.LVL518:
	.p2align 4,,10
	.p2align 3
.L401:
.LBE3177:
.LBE3176:
.LBB3200:
	.loc 1 667 0
	movl	20(%edi), %esi
.LVL519:
.LBB3201:
	.loc 1 668 0
	cmpb	$9, (%esi)
	ja	.L430
	movzbl	(%esi), %eax
	movl	.L432@GOTOFF(%ebx,%eax,4), %ecx
	addl	%ebx, %ecx
	jmp	*%ecx
	.section	.rodata
	.align 4
	.align 4
.L432:
	.long	.L430@GOTOFF
	.long	.L430@GOTOFF
	.long	.L431@GOTOFF
	.long	.L433@GOTOFF
	.long	.L434@GOTOFF
	.long	.L439@GOTOFF
	.long	.L439@GOTOFF
	.long	.L438@GOTOFF
	.long	.L438@GOTOFF
	.long	.L439@GOTOFF
	.text
.LVL520:
	.p2align 4,,10
	.p2align 3
.L400:
.LBE3201:
.LBE3200:
	.loc 1 1643 0
	movl	20(%edi), %eax
.LBB3246:
.LBB2967:
.LBB2879:
.LBB2778:
	.loc 1 969 0
	addl	$1, %ebp
.LVL521:
.LBE2778:
.LBE2879:
.LBE2967:
.LBE3246:
	.loc 1 1644 0
	leal	5(%eax), %edx
	.loc 1 1643 0
	movl	$0, 1(%eax)
	.loc 1 1644 0
	movl	%edx, 20(%edi)
	movb	$0, 5(%eax)
	jmp	.L313
	.p2align 4,,10
	.p2align 3
.L399:
	.loc 1 1572 0
	movl	20(%edi), %eax
.LBB3247:
.LBB2968:
.LBB2880:
.LBB2779:
	.loc 1 969 0
	addl	$1, %ebp
.LVL522:
.LBE2779:
.LBE2880:
.LBE2968:
.LBE3247:
	.loc 1 1573 0
	leal	5(%eax), %edx
	.loc 1 1572 0
	movl	$0, 1(%eax)
	.loc 1 1573 0
	movl	%edx, 20(%edi)
	movb	$9, 5(%eax)
	jmp	.L313
	.p2align 4,,10
	.p2align 3
.L398:
	.loc 1 1580 0
	movl	20(%edi), %eax
.LBB3248:
.LBB2969:
.LBB2881:
.LBB2780:
	.loc 1 969 0
	addl	$1, %ebp
.LVL523:
.LBE2780:
.LBE2881:
.LBE2969:
.LBE3248:
	.loc 1 1581 0
	leal	5(%eax), %edx
	.loc 1 1580 0
	movl	$1, 1(%eax)
	.loc 1 1581 0
	movl	%edx, 20(%edi)
	movb	$9, 5(%eax)
	jmp	.L313
	.p2align 4,,10
	.p2align 3
.L397:
	.loc 1 1564 0
	movl	20(%edi), %eax
.LVL524:
	fldl	1(%ebp)
	.loc 1 1565 0
	addl	$8, %ebp
.LVL525:
.LBB3249:
.LBB2970:
.LBB2882:
.LBB2781:
	.loc 1 969 0
	addl	$1, %ebp
.LVL526:
.LBE2781:
.LBE2882:
.LBE2970:
.LBE3249:
	.loc 1 1566 0
	leal	9(%eax), %edx
	.loc 1 1564 0
	fstpl	1(%eax)
	.loc 1 1566 0
	movl	%edx, 20(%edi)
	movb	$10, 9(%eax)
	jmp	.L313
	.p2align 4,,10
	.p2align 3
.L396:
	.loc 1 1637 0
	movl	1(%ebp), %eax
	movl	20(%edi), %ecx
.LVL527:
	.loc 1 1638 0
	addl	$8, %ebp
.LVL528:
	.loc 1 1637 0
	movl	-3(%ebp), %edx
.LVL529:
.LBB3250:
.LBB2971:
.LBB2883:
.LBB2782:
	.loc 1 969 0
	addl	$1, %ebp
.LVL530:
.LBE2782:
.LBE2883:
.LBE2971:
.LBE3250:
	.loc 1 1637 0
	movl	%eax, 1(%ecx)
	.loc 1 1639 0
	leal	9(%ecx), %eax
	.loc 1 1637 0
	movl	%edx, 5(%ecx)
	.loc 1 1639 0
	movl	%eax, 20(%edi)
	movb	$7, 9(%ecx)
	jmp	.L313
	.p2align 4,,10
	.p2align 3
.L395:
	.loc 1 1628 0
	movl	1(%ebp), %eax
	movl	20(%edi), %ecx
.LVL531:
	.loc 1 1629 0
	addl	$8, %ebp
.LVL532:
	.loc 1 1628 0
	movl	-3(%ebp), %edx
.LVL533:
.LBB3251:
.LBB2972:
.LBB2884:
.LBB2783:
	.loc 1 969 0
	addl	$1, %ebp
.LVL534:
.LBE2783:
.LBE2884:
.LBE2972:
.LBE3251:
	.loc 1 1628 0
	movl	%eax, 1(%ecx)
	.loc 1 1630 0
	leal	9(%ecx), %eax
	.loc 1 1628 0
	movl	%edx, 5(%ecx)
	.loc 1 1630 0
	movl	%eax, 20(%edi)
	movb	$8, 9(%ecx)
	jmp	.L313
	.p2align 4,,10
	.p2align 3
.L394:
	.loc 1 1619 0
	movl	1(%ebp), %edx
	movl	20(%edi), %eax
.LVL535:
	.loc 1 1620 0
	addl	$4, %ebp
.LVL536:
.LBB3252:
.LBB2973:
.LBB2885:
.LBB2784:
	.loc 1 969 0
	addl	$1, %ebp
.LVL537:
.LBE2784:
.LBE2885:
.LBE2973:
.LBE3252:
	.loc 1 1619 0
	movl	%edx, 1(%eax)
	.loc 1 1621 0
	leal	5(%eax), %edx
	movl	%edx, 20(%edi)
	movb	$5, 5(%eax)
	jmp	.L313
	.p2align 4,,10
	.p2align 3
.L393:
	.loc 1 1611 0
	movl	1(%ebp), %edx
	movl	20(%edi), %eax
.LVL538:
	.loc 1 1612 0
	addl	$4, %ebp
.LVL539:
.LBB3253:
.LBB2974:
.LBB2886:
.LBB2785:
	.loc 1 969 0
	addl	$1, %ebp
.LVL540:
.LBE2785:
.LBE2886:
.LBE2974:
.LBE3253:
	.loc 1 1611 0
	movl	%edx, 1(%eax)
	.loc 1 1613 0
	leal	5(%eax), %edx
	movl	%edx, 20(%edi)
	movb	$6, 5(%eax)
	jmp	.L313
	.p2align 4,,10
	.p2align 3
.L416:
.LBB3254:
	.loc 1 1282 0
	movl	20(%edi), %eax
.LVL541:
.LBB3255:
	.loc 1 1283 0
	cmpb	$10, (%eax)
	ja	.L589
	movzbl	(%eax), %edx
	movl	.L591@GOTOFF(%ebx,%edx,4), %esi
	addl	%ebx, %esi
	jmp	*%esi
	.section	.rodata
	.align 4
	.align 4
.L591:
	.long	.L589@GOTOFF
	.long	.L589@GOTOFF
	.long	.L590@GOTOFF
	.long	.L592@GOTOFF
	.long	.L593@GOTOFF
	.long	.L594@GOTOFF
	.long	.L595@GOTOFF
	.long	.L596@GOTOFF
	.long	.L597@GOTOFF
	.long	.L589@GOTOFF
	.long	.L598@GOTOFF
	.text
.LVL542:
	.p2align 4,,10
	.p2align 3
.L415:
.LBE3255:
.LBE3254:
.LBB3283:
	.loc 1 1189 0
	movl	20(%edi), %eax
.LVL543:
.LBB3284:
	.loc 1 1190 0
	cmpb	$10, (%eax)
	ja	.L574
	movzbl	(%eax), %edx
	movl	.L576@GOTOFF(%ebx,%edx,4), %esi
	addl	%ebx, %esi
	jmp	*%esi
	.section	.rodata
	.align 4
	.align 4
.L576:
	.long	.L574@GOTOFF
	.long	.L574@GOTOFF
	.long	.L575@GOTOFF
	.long	.L577@GOTOFF
	.long	.L578@GOTOFF
	.long	.L579@GOTOFF
	.long	.L580@GOTOFF
	.long	.L581@GOTOFF
	.long	.L582@GOTOFF
	.long	.L574@GOTOFF
	.long	.L583@GOTOFF
	.text
.LVL544:
	.p2align 4,,10
	.p2align 3
.L414:
.LBE3284:
.LBE3283:
.LBB3310:
	.loc 1 2195 0
	movl	20(%edi), %eax
	movzbl	(%eax), %edx
.LVL545:
	.loc 1 2196 0
	cmpb	$6, %dl
	ja	.L757
	.loc 1 2197 0
	subl	$5, %eax
.LBE3310:
.LBB3311:
.LBB2975:
.LBB2887:
.LBB2786:
	.loc 1 969 0
	addl	$1, %ebp
.LVL546:
.LBE2786:
.LBE2887:
.LBE2975:
.LBE3311:
.LBB3312:
	.loc 1 2197 0
	movl	%eax, 20(%edi)
	jmp	.L313
.LVL547:
	.p2align 4,,10
	.p2align 3
.L413:
.LBE3312:
.LBB3313:
	.loc 1 2369 0
	movl	20(%edi), %esi
.LVL548:
.LBB3314:
	.loc 1 2370 0
	cmpb	$8, (%esi)
	ja	.L777
	movzbl	(%esi), %eax
	movl	.L779@GOTOFF(%ebx,%eax,4), %ecx
	addl	%ebx, %ecx
	jmp	*%ecx
	.section	.rodata
	.align 4
	.align 4
.L779:
	.long	.L777@GOTOFF
	.long	.L777@GOTOFF
	.long	.L778@GOTOFF
	.long	.L780@GOTOFF
	.long	.L781@GOTOFF
	.long	.L782@GOTOFF
	.long	.L783@GOTOFF
	.long	.L784@GOTOFF
	.long	.L785@GOTOFF
	.text
.LVL549:
	.p2align 4,,10
	.p2align 3
.L412:
.LBE3314:
.LBE3313:
.LBB3338:
	.loc 1 2296 0
	movl	20(%edi), %esi
.LVL550:
.LBB3339:
	.loc 1 2297 0
	cmpb	$8, (%esi)
	ja	.L768
	movzbl	(%esi), %eax
	movl	.L770@GOTOFF(%ebx,%eax,4), %ecx
	addl	%ebx, %ecx
	jmp	*%ecx
	.section	.rodata
	.align 4
	.align 4
.L770:
	.long	.L768@GOTOFF
	.long	.L768@GOTOFF
	.long	.L769@GOTOFF
	.long	.L771@GOTOFF
	.long	.L772@GOTOFF
	.long	.L773@GOTOFF
	.long	.L774@GOTOFF
	.long	.L775@GOTOFF
	.long	.L776@GOTOFF
	.text
.LVL551:
	.p2align 4,,10
	.p2align 3
.L411:
.LBE3339:
.LBE3338:
	.loc 1 894 0
	movl	20(%edi), %eax
	cmpb	$10, (%eax)
	ja	.L536
	movzbl	(%eax), %edx
	movl	.L538@GOTOFF(%ebx,%edx,4), %esi
	addl	%ebx, %esi
	jmp	*%esi
	.section	.rodata
	.align 4
	.align 4
.L538:
	.long	.L536@GOTOFF
	.long	.L536@GOTOFF
	.long	.L539@GOTOFF
	.long	.L539@GOTOFF
	.long	.L540@GOTOFF
	.long	.L542@GOTOFF
	.long	.L542@GOTOFF
	.long	.L543@GOTOFF
	.long	.L543@GOTOFF
	.long	.L536@GOTOFF
	.long	.L545@GOTOFF
	.text
	.p2align 4,,10
	.p2align 3
.L410:
	.loc 1 1358 0
	movl	20(%edi), %eax
	cmpb	$10, (%eax)
	ja	.L604
	movzbl	(%eax), %edx
	movl	.L606@GOTOFF(%ebx,%edx,4), %esi
	addl	%ebx, %esi
	jmp	*%esi
	.section	.rodata
	.align 4
	.align 4
.L606:
	.long	.L604@GOTOFF
	.long	.L604@GOTOFF
	.long	.L607@GOTOFF
	.long	.L607@GOTOFF
	.long	.L608@GOTOFF
	.long	.L610@GOTOFF
	.long	.L610@GOTOFF
	.long	.L611@GOTOFF
	.long	.L611@GOTOFF
	.long	.L604@GOTOFF
	.long	.L613@GOTOFF
	.text
	.p2align 4,,10
	.p2align 3
.L409:
.LVL552:
.LBB3361:
.LBB3362:
.LBB3363:
	.loc 2 27 0
	leal	.LC0@GOTOFF(%ebx), %esi
	.loc 2 26 0
	movl	$0, 92(%esp)
	movl	$0, 96(%esp)
	movl	$0, 100(%esp)
	.loc 2 27 0
	subl	$12, %esp
	.cfi_def_cfa_offset 156
.LBE3363:
.LBE3362:
.LBE3361:
.LBB3366:
.LBB2976:
.LBB2888:
.LBB2787:
	.loc 1 969 0
	addl	$1, %ebp
.LVL553:
.LBE2787:
.LBE2888:
.LBE2976:
.LBE3366:
.LBB3367:
.LBB3365:
.LBB3364:
	.loc 2 27 0
	pushl	%esi
	.cfi_def_cfa_offset 160
	call	strlen@PLT
.LVL554:
	movl	%eax, 116(%esp)
	.loc 2 28 0
	addl	$1, %eax
	movl	%eax, 112(%esp)
	.loc 2 29 0
	movl	%eax, (%esp)
	call	kmalloc@PLT
.LVL555:
	movl	%eax, 108(%esp)
	.loc 2 30 0
	popl	%edx
	.cfi_def_cfa_offset 156
	popl	%ecx
	.cfi_def_cfa_offset 152
	pushl	%esi
	.cfi_def_cfa_offset 156
	pushl	%eax
	.cfi_def_cfa_offset 160
	call	strcpy@PLT
.LVL556:
.LBE3364:
.LBE3365:
.LBE3367:
	.loc 1 2205 0
	popl	%esi
	.cfi_def_cfa_offset 156
	leal	.LC44@GOTOFF(%ebx), %eax
	pushl	32(%esp)
	.cfi_def_cfa_offset 160
	pushl	$2
	.cfi_def_cfa_offset 164
	pushl	$2205
	.cfi_def_cfa_offset 168
	pushl	%eax
	.cfi_def_cfa_offset 172
	pushl	%edi
	.cfi_def_cfa_offset 176
	call	_ZN7Runtime9rtThrowExEPKciNS_8RtExTypeEN4kstd6stringE
.LVL557:
.LBB3368:
.LBB3369:
	.loc 2 43 0
	addl	$20, %esp
	.cfi_def_cfa_offset 156
	pushl	104(%esp)
	.cfi_def_cfa_offset 160
	call	kfree@PLT
.LVL558:
.LBE3369:
.LBE3368:
	.loc 1 2207 0
	addl	$16, %esp
	.cfi_def_cfa_offset 144
	jmp	.L313
	.p2align 4,,10
	.p2align 3
.L417:
.LBB3370:
	.loc 1 1674 0
	movl	20(%edi), %eax
.LVL559:
.LBB3371:
	.loc 1 1676 0
	cmpb	$10, (%eax)
	ja	.L679
	movzbl	(%eax), %edx
	movl	.L681@GOTOFF(%ebx,%edx,4), %esi
	addl	%ebx, %esi
	jmp	*%esi
	.section	.rodata
	.align 4
	.align 4
.L681:
	.long	.L679@GOTOFF
	.long	.L679@GOTOFF
	.long	.L680@GOTOFF
	.long	.L682@GOTOFF
	.long	.L683@GOTOFF
	.long	.L684@GOTOFF
	.long	.L685@GOTOFF
	.long	.L686@GOTOFF
	.long	.L687@GOTOFF
	.long	.L679@GOTOFF
	.long	.L688@GOTOFF
	.text
.LVL560:
	.p2align 4,,10
	.p2align 3
.L392:
.LBE3371:
.LBE3370:
	.loc 1 1603 0
	movl	1(%ebp), %edx
	movl	20(%edi), %eax
.LVL561:
	.loc 1 1604 0
	addl	$4, %ebp
.LVL562:
.LBB3397:
.LBB2977:
.LBB2889:
.LBB2788:
	.loc 1 969 0
	addl	$1, %ebp
.LVL563:
.LBE2788:
.LBE2889:
.LBE2977:
.LBE3397:
	.loc 1 1603 0
	movl	%edx, 1(%eax)
	.loc 1 1605 0
	leal	5(%eax), %edx
	movl	%edx, 20(%edi)
	movb	$3, 5(%eax)
	jmp	.L313
	.p2align 4,,10
	.p2align 3
.L391:
	.loc 1 1596 0
	movzwl	1(%ebp), %edx
	movl	20(%edi), %eax
.LVL564:
	.loc 1 1597 0
	addl	$4, %ebp
.LVL565:
.LBB3398:
.LBB2978:
.LBB2890:
.LBB2789:
	.loc 1 969 0
	addl	$1, %ebp
.LVL566:
.LBE2789:
.LBE2890:
.LBE2978:
.LBE3398:
	.loc 1 1596 0
	movw	%dx, 1(%eax)
	.loc 1 1598 0
	leal	5(%eax), %edx
	movl	%edx, 20(%edi)
	movb	$4, 5(%eax)
	jmp	.L313
	.p2align 4,,10
	.p2align 3
.L390:
	.loc 1 1587 0
	movl	20(%edi), %eax
	.loc 1 1588 0
	addl	$4, %ebp
.LVL567:
	.loc 1 1587 0
	leal	1(%eax), %edx
	movl	%edx, 20(%edi)
.LVL568:
	movzbl	-3(%ebp), %edx
.LVL569:
.LBB3399:
.LBB2979:
.LBB2891:
.LBB2790:
	.loc 1 969 0
	addl	$1, %ebp
.LVL570:
.LBE2790:
.LBE2891:
.LBE2979:
.LBE3399:
	.loc 1 1587 0
	movb	%dl, 1(%eax)
	.loc 1 1589 0
	movl	20(%edi), %eax
	leal	4(%eax), %edx
	movl	%edx, 20(%edi)
	movb	$2, 4(%eax)
	jmp	.L313
	.p2align 4,,10
	.p2align 3
.L389:
.LVL571:
.LBB3400:
	.loc 1 1649 0
	movl	148(%esp), %eax
	movl	1(%ebp), %edx
	.loc 1 1650 0
	subl	$12, %esp
	.cfi_def_cfa_offset 156
	.loc 1 1668 0
	addl	$4, %ebp
.LVL572:
.LBE3400:
.LBB3401:
.LBB2980:
.LBB2892:
.LBB2791:
	.loc 1 969 0
	addl	$1, %ebp
.LVL573:
.LBE2791:
.LBE2892:
.LBE2980:
.LBE3401:
.LBB3402:
	.loc 1 1649 0
	movl	304(%eax), %eax
	addl	20(%eax), %edx
.LVL574:
	.loc 1 1650 0
	pushl	%edx
	.cfi_def_cfa_offset 160
	movl	%edx, 40(%esp)
	call	strlen@PLT
.LVL575:
	movl	%eax, %ecx
.LVL576:
	.loc 1 1653 0
	leal	6(%eax), %eax
.LVL577:
	addl	$12, %esp
	.cfi_def_cfa_offset 148
	movl	%ecx, 12(%esp)
	pushl	%eax
	.cfi_def_cfa_offset 152
	leal	532(%edi), %eax
	pushl	$11
	.cfi_def_cfa_offset 156
	pushl	%eax
	.cfi_def_cfa_offset 160
	call	_ZN7Runtime13MemoryManager8AllocateE4Typem@PLT
.LVL578:
	movl	%eax, %esi
.LVL579:
	.loc 1 1655 0
	popl	%eax
	.cfi_def_cfa_offset 156
.LVL580:
	popl	%edx
	.cfi_def_cfa_offset 152
	movl	32(%esp), %edx
	leal	5(%esi), %eax
	pushl	%edx
	.cfi_def_cfa_offset 156
	pushl	%eax
	.cfi_def_cfa_offset 160
	call	strcpy@PLT
.LVL581:
	.loc 1 1650 0
	movl	24(%esp), %ecx
	.loc 1 1656 0
	movb	$11, (%esi)
.LBE3402:
	.loc 1 1671 0
	addl	$16, %esp
	.cfi_def_cfa_offset 144
.LBB3403:
	.loc 1 1650 0
	leal	1(%ecx), %eax
	movl	%eax, 1(%esi)
	.loc 1 1661 0
	movl	20(%edi), %eax
	.loc 1 1667 0
	leal	5(%eax), %edx
	.loc 1 1661 0
	movl	%esi, 1(%eax)
	.loc 1 1667 0
	movl	%edx, 20(%edi)
	movb	$11, 5(%eax)
	jmp	.L313
.LVL582:
	.p2align 4,,10
	.p2align 3
.L388:
.LBE3403:
	.loc 1 1556 0
	movl	20(%edi), %eax
.LBB3404:
.LBB2981:
.LBB2893:
.LBB2792:
	.loc 1 969 0
	addl	$1, %ebp
.LVL583:
.LBE2792:
.LBE2893:
.LBE2981:
.LBE3404:
	.loc 1 1557 0
	leal	5(%eax), %edx
	.loc 1 1556 0
	movl	$2, 1(%eax)
	.loc 1 1557 0
	movl	%edx, 20(%edi)
	movb	$5, 5(%eax)
	jmp	.L313
	.p2align 4,,10
	.p2align 3
.L387:
	.loc 1 1550 0
	movl	20(%edi), %eax
.LBB3405:
.LBB2982:
.LBB2894:
.LBB2793:
	.loc 1 969 0
	addl	$1, %ebp
.LVL584:
.LBE2793:
.LBE2894:
.LBE2982:
.LBE3405:
	.loc 1 1551 0
	leal	5(%eax), %edx
	.loc 1 1550 0
	movl	$1, 1(%eax)
	.loc 1 1551 0
	movl	%edx, 20(%edi)
	movb	$5, 5(%eax)
	jmp	.L313
	.p2align 4,,10
	.p2align 3
.L386:
	.loc 1 1544 0
	movl	20(%edi), %eax
.LBB3406:
.LBB2983:
.LBB2895:
.LBB2794:
	.loc 1 969 0
	addl	$1, %ebp
.LVL585:
.LBE2794:
.LBE2895:
.LBE2983:
.LBE3406:
	.loc 1 1545 0
	leal	5(%eax), %edx
	.loc 1 1544 0
	movl	$0, 1(%eax)
	.loc 1 1545 0
	movl	%edx, 20(%edi)
	movb	$5, 5(%eax)
	jmp	.L313
	.p2align 4,,10
	.p2align 3
.L385:
	.loc 1 1538 0
	movl	20(%edi), %eax
.LBB3407:
.LBB2984:
.LBB2896:
.LBB2795:
	.loc 1 969 0
	addl	$1, %ebp
.LVL586:
.LBE2795:
.LBE2896:
.LBE2984:
.LBE3407:
	.loc 1 1539 0
	leal	5(%eax), %edx
	.loc 1 1538 0
	movl	$2, 1(%eax)
	.loc 1 1539 0
	movl	%edx, 20(%edi)
	movb	$6, 5(%eax)
	jmp	.L313
	.p2align 4,,10
	.p2align 3
.L384:
	.loc 1 1532 0
	movl	20(%edi), %eax
.LBB3408:
.LBB2985:
.LBB2897:
.LBB2796:
	.loc 1 969 0
	addl	$1, %ebp
.LVL587:
.LBE2796:
.LBE2897:
.LBE2985:
.LBE3408:
	.loc 1 1533 0
	leal	5(%eax), %edx
	.loc 1 1532 0
	movl	$1, 1(%eax)
	.loc 1 1533 0
	movl	%edx, 20(%edi)
	movb	$6, 5(%eax)
	jmp	.L313
	.p2align 4,,10
	.p2align 3
.L383:
	.loc 1 1526 0
	movl	20(%edi), %eax
.LBB3409:
.LBB2986:
.LBB2898:
.LBB2797:
	.loc 1 969 0
	addl	$1, %ebp
.LVL588:
.LBE2797:
.LBE2898:
.LBE2986:
.LBE3409:
	.loc 1 1527 0
	leal	5(%eax), %edx
	.loc 1 1526 0
	movl	$0, 1(%eax)
	.loc 1 1527 0
	movl	%edx, 20(%edi)
	movb	$6, 5(%eax)
	jmp	.L313
	.p2align 4,,10
	.p2align 3
.L382:
.LVL589:
.LBB3410:
.LBB3411:
	.loc 1 3108 0
	movl	148(%esp), %eax
	movl	304(%eax), %eax
	movl	16(%eax), %edx
.LVL590:
	movl	268(%edx), %eax
	.loc 1 3109 0
	movb	$1, 273(%edx)
.LVL591:
	movzbl	(%eax), %eax
.LVL592:
	subl	$2, %eax
.LVL593:
	cmpb	$11, %al
	ja	.L901
	movzbl	%al, %eax
	movl	CSWTCH.85@GOTOFF(%ebx,%eax,4), %ecx
	movl	%ecx, %eax
	negl	%eax
.L812:
.LVL594:
	.loc 1 3111 0
	addl	20(%edi), %eax
	.loc 1 3112 0
	subl	$4, %esp
	.cfi_def_cfa_offset 148
.LBE3411:
.LBE3410:
.LBB3414:
.LBB2987:
.LBB2899:
.LBB2798:
	.loc 1 969 0
	addl	$1, %ebp
.LVL595:
.LBE2798:
.LBE2899:
.LBE2987:
.LBE3414:
.LBB3415:
.LBB3412:
	.loc 1 3111 0
	movl	%eax, 20(%edi)
.LVL596:
	.loc 1 3112 0
	pushl	%ecx
	.cfi_def_cfa_offset 152
	pushl	%eax
	.cfi_def_cfa_offset 156
	pushl	184(%edx)
	.cfi_def_cfa_offset 160
	call	memcpy@PLT
.LVL597:
	.loc 1 3113 0
	subl	$1, 20(%edi)
	addl	$16, %esp
	.cfi_def_cfa_offset 144
	jmp	.L313
.LVL598:
	.p2align 4,,10
	.p2align 3
.L381:
.LBE3412:
.LBE3415:
.LBB3416:
.LBB3417:
	.loc 1 3108 0
	movl	148(%esp), %eax
	movl	304(%eax), %eax
	movl	16(%eax), %edx
.LVL599:
	movl	176(%edx), %eax
	.loc 1 3109 0
	movb	$1, 181(%edx)
.LVL600:
	movzbl	(%eax), %eax
.LVL601:
	subl	$2, %eax
.LVL602:
	cmpb	$11, %al
	ja	.L900
	movzbl	%al, %eax
	movl	CSWTCH.85@GOTOFF(%ebx,%eax,4), %ecx
	movl	%ecx, %eax
	negl	%eax
.L811:
.LVL603:
	.loc 1 3111 0
	addl	20(%edi), %eax
	.loc 1 3112 0
	subl	$4, %esp
	.cfi_def_cfa_offset 148
.LBE3417:
.LBE3416:
.LBB3420:
.LBB2988:
.LBB2900:
.LBB2799:
	.loc 1 969 0
	addl	$1, %ebp
.LVL604:
.LBE2799:
.LBE2900:
.LBE2988:
.LBE3420:
.LBB3421:
.LBB3418:
	.loc 1 3111 0
	movl	%eax, 20(%edi)
.LVL605:
	.loc 1 3112 0
	pushl	%ecx
	.cfi_def_cfa_offset 152
	pushl	%eax
	.cfi_def_cfa_offset 156
	pushl	92(%edx)
	.cfi_def_cfa_offset 160
	call	memcpy@PLT
.LVL606:
	.loc 1 3113 0
	subl	$1, 20(%edi)
	addl	$16, %esp
	.cfi_def_cfa_offset 144
	jmp	.L313
.LVL607:
	.p2align 4,,10
	.p2align 3
.L380:
.LBE3418:
.LBE3421:
.LBB3422:
.LBB3423:
	.loc 1 3108 0
	movl	148(%esp), %eax
	movl	304(%eax), %eax
	movl	16(%eax), %edx
.LVL608:
	movl	84(%edx), %eax
	.loc 1 3109 0
	movb	$1, 89(%edx)
.LVL609:
	movzbl	(%eax), %eax
.LVL610:
	subl	$2, %eax
.LVL611:
	cmpb	$11, %al
	ja	.L899
	movzbl	%al, %eax
	movl	CSWTCH.85@GOTOFF(%ebx,%eax,4), %ecx
	movl	%ecx, %eax
	negl	%eax
.L810:
.LVL612:
	.loc 1 3111 0
	addl	20(%edi), %eax
	.loc 1 3112 0
	subl	$4, %esp
	.cfi_def_cfa_offset 148
.LBE3423:
.LBE3422:
.LBB3426:
.LBB2989:
.LBB2901:
.LBB2800:
	.loc 1 969 0
	addl	$1, %ebp
.LVL613:
.LBE2800:
.LBE2901:
.LBE2989:
.LBE3426:
.LBB3427:
.LBB3424:
	.loc 1 3111 0
	movl	%eax, 20(%edi)
.LVL614:
	.loc 1 3112 0
	pushl	%ecx
	.cfi_def_cfa_offset 152
	pushl	%eax
	.cfi_def_cfa_offset 156
	pushl	(%edx)
	.cfi_def_cfa_offset 160
	call	memcpy@PLT
.LVL615:
	.loc 1 3113 0
	subl	$1, 20(%edi)
	addl	$16, %esp
	.cfi_def_cfa_offset 144
	jmp	.L313
.LVL616:
	.p2align 4,,10
	.p2align 3
.L379:
.LBE3424:
.LBE3427:
.LBB3428:
.LBB3429:
	.loc 1 3108 0
	movl	148(%esp), %eax
	movl	304(%eax), %edx
	imull	$92, 1(%ebp), %eax
	addl	16(%edx), %eax
.LVL617:
	movl	84(%eax), %edx
	.loc 1 3109 0
	movb	$1, 89(%eax)
.LVL618:
	movzbl	(%edx), %edx
.LVL619:
	subl	$2, %edx
.LVL620:
	cmpb	$11, %dl
	ja	.L898
	movzbl	%dl, %edx
	movl	CSWTCH.85@GOTOFF(%ebx,%edx,4), %ecx
	movl	%ecx, %edx
	negl	%edx
.L809:
.LVL621:
	.loc 1 3111 0
	addl	20(%edi), %edx
	.loc 1 3112 0
	subl	$4, %esp
	.cfi_def_cfa_offset 148
.LBE3429:
.LBE3428:
	.loc 1 2482 0
	addl	$4, %ebp
.LVL622:
.LBB3432:
.LBB2990:
.LBB2902:
.LBB2801:
	.loc 1 969 0
	addl	$1, %ebp
.LVL623:
.LBE2801:
.LBE2902:
.LBE2990:
.LBE3432:
.LBB3433:
.LBB3430:
	.loc 1 3111 0
	movl	%edx, 20(%edi)
.LVL624:
	.loc 1 3112 0
	pushl	%ecx
	.cfi_def_cfa_offset 152
.LVL625:
	pushl	%edx
	.cfi_def_cfa_offset 156
	pushl	(%eax)
	.cfi_def_cfa_offset 160
	call	memcpy@PLT
.LVL626:
	.loc 1 3113 0
	subl	$1, 20(%edi)
.LVL627:
.LBE3430:
.LBE3433:
	.loc 1 2484 0
	addl	$16, %esp
	.cfi_def_cfa_offset 144
	jmp	.L313
.LVL628:
	.p2align 4,,10
	.p2align 3
.L378:
.LBB3434:
.LBB3435:
	.loc 1 2933 0
	movl	148(%esp), %eax
	.loc 1 2934 0
	xorl	%esi, %esi
	.loc 1 2933 0
	movl	304(%eax), %eax
	movl	16(%eax), %ecx
.LVL629:
	movl	268(%ecx), %eax
	movzbl	(%eax), %eax
	subl	$2, %eax
	cmpb	$11, %al
	ja	.L658
	movzbl	%al, %eax
	movl	CSWTCH.85@GOTOFF(%ebx,%eax,4), %esi
.L658:
.LVL630:
	.loc 1 2935 0
	movl	20(%edi), %eax
	movl	184(%ecx), %edx
	subl	$4, %esp
	.cfi_def_cfa_offset 148
	movl	%ecx, 12(%esp)
.LBE3435:
.LBE3434:
.LBB3437:
.LBB2991:
.LBB2903:
.LBB2802:
	.loc 1 969 0
	addl	$1, %ebp
.LVL631:
.LBE2802:
.LBE2903:
.LBE2991:
.LBE3437:
.LBB3438:
.LBB3436:
	.loc 1 2935 0
	addl	$1, %eax
	movl	%eax, 20(%edi)
.LVL632:
	pushl	%esi
	.cfi_def_cfa_offset 152
	pushl	%edx
	.cfi_def_cfa_offset 156
	pushl	%eax
	.cfi_def_cfa_offset 160
	call	memcpy@PLT
.LVL633:
	.loc 1 2937 0
	addl	20(%edi), %esi
	movl	24(%esp), %ecx
	addl	$16, %esp
	.cfi_def_cfa_offset 144
	movl	%esi, 20(%edi)
	movl	268(%ecx), %eax
	movzbl	(%eax), %eax
	movb	%al, (%esi)
	jmp	.L313
.LVL634:
	.p2align 4,,10
	.p2align 3
.L377:
.LBE3436:
.LBE3438:
.LBB3439:
.LBB3440:
	.loc 1 2933 0
	movl	148(%esp), %eax
	.loc 1 2934 0
	xorl	%esi, %esi
	.loc 1 2933 0
	movl	304(%eax), %eax
	movl	16(%eax), %ecx
.LVL635:
	movl	176(%ecx), %eax
	movzbl	(%eax), %eax
	subl	$2, %eax
	cmpb	$11, %al
	ja	.L657
	movzbl	%al, %eax
	movl	CSWTCH.85@GOTOFF(%ebx,%eax,4), %esi
.L657:
.LVL636:
	.loc 1 2935 0
	movl	20(%edi), %eax
	movl	92(%ecx), %edx
	subl	$4, %esp
	.cfi_def_cfa_offset 148
	movl	%ecx, 12(%esp)
.LBE3440:
.LBE3439:
.LBB3442:
.LBB2992:
.LBB2904:
.LBB2803:
	.loc 1 969 0
	addl	$1, %ebp
.LVL637:
.LBE2803:
.LBE2904:
.LBE2992:
.LBE3442:
.LBB3443:
.LBB3441:
	.loc 1 2935 0
	addl	$1, %eax
	movl	%eax, 20(%edi)
.LVL638:
	pushl	%esi
	.cfi_def_cfa_offset 152
	pushl	%edx
	.cfi_def_cfa_offset 156
	pushl	%eax
	.cfi_def_cfa_offset 160
	call	memcpy@PLT
.LVL639:
	.loc 1 2937 0
	addl	20(%edi), %esi
	movl	24(%esp), %ecx
	addl	$16, %esp
	.cfi_def_cfa_offset 144
	movl	%esi, 20(%edi)
	movl	176(%ecx), %eax
	movzbl	(%eax), %eax
	movb	%al, (%esi)
	jmp	.L313
.LVL640:
	.p2align 4,,10
	.p2align 3
.L376:
.LBE3441:
.LBE3443:
.LBB3444:
.LBB3445:
	.loc 1 2933 0
	movl	148(%esp), %eax
	.loc 1 2934 0
	xorl	%esi, %esi
	.loc 1 2933 0
	movl	304(%eax), %eax
	movl	16(%eax), %ecx
.LVL641:
	movl	84(%ecx), %eax
	movzbl	(%eax), %eax
	subl	$2, %eax
	cmpb	$11, %al
	ja	.L656
	movzbl	%al, %eax
	movl	CSWTCH.85@GOTOFF(%ebx,%eax,4), %esi
.L656:
.LVL642:
	.loc 1 2935 0
	movl	20(%edi), %eax
	movl	(%ecx), %edx
	subl	$4, %esp
	.cfi_def_cfa_offset 148
	movl	%ecx, 12(%esp)
.LBE3445:
.LBE3444:
.LBB3447:
.LBB2993:
.LBB2905:
.LBB2804:
	.loc 1 969 0
	addl	$1, %ebp
.LVL643:
.LBE2804:
.LBE2905:
.LBE2993:
.LBE3447:
.LBB3448:
.LBB3446:
	.loc 1 2935 0
	addl	$1, %eax
	movl	%eax, 20(%edi)
.LVL644:
	pushl	%esi
	.cfi_def_cfa_offset 152
	pushl	%edx
	.cfi_def_cfa_offset 156
	pushl	%eax
	.cfi_def_cfa_offset 160
	call	memcpy@PLT
.LVL645:
	.loc 1 2937 0
	addl	20(%edi), %esi
	movl	24(%esp), %ecx
	addl	$16, %esp
	.cfi_def_cfa_offset 144
	movl	%esi, 20(%edi)
	movl	84(%ecx), %eax
	movzbl	(%eax), %eax
	movb	%al, (%esi)
	jmp	.L313
.LVL646:
	.p2align 4,,10
	.p2align 3
.L368:
	movl	148(%esp), %eax
.LBE3446:
.LBE3448:
.LBB3449:
.LBB3450:
	.loc 1 2925 0
	xorl	%esi, %esi
	movl	116(%eax), %eax
	movzbl	(%eax), %eax
	subl	$2, %eax
	cmpb	$11, %al
	ja	.L652
	movzbl	%al, %eax
	movl	CSWTCH.85@GOTOFF(%ebx,%eax,4), %esi
.L652:
.LVL647:
	.loc 1 2926 0
	movl	148(%esp), %eax
	movl	152(%esp), %edx
	subl	$4, %esp
	.cfi_def_cfa_offset 148
.LBE3450:
.LBE3449:
.LBB3452:
.LBB2994:
.LBB2906:
.LBB2805:
	.loc 1 969 0
	addl	$1, %ebp
.LVL648:
.LBE2805:
.LBE2906:
.LBE2994:
.LBE3452:
.LBB3453:
.LBB3451:
	.loc 1 2926 0
	addl	112(%eax), %edx
	movl	20(%edi), %eax
	addl	$1, %eax
	movl	%eax, 20(%edi)
.LVL649:
	pushl	%esi
	.cfi_def_cfa_offset 152
	pushl	%edx
	.cfi_def_cfa_offset 156
	pushl	%eax
	.cfi_def_cfa_offset 160
	call	memcpy@PLT
.LVL650:
	.loc 1 2927 0
	movl	20(%edi), %eax
	addl	%esi, %eax
	movl	164(%esp), %esi
	addl	$16, %esp
	.cfi_def_cfa_offset 144
	movl	%eax, 20(%edi)
	movl	116(%esi), %edx
	movzbl	(%edx), %edx
	movb	%dl, (%eax)
	jmp	.L313
.LVL651:
	.p2align 4,,10
	.p2align 3
.L372:
.LBE3451:
.LBE3453:
.LBB3454:
.LBB3455:
	.loc 1 3099 0
	movl	148(%esp), %eax
	movb	$1, 120(%eax)
.LVL652:
	movl	116(%eax), %eax
	movzbl	(%eax), %eax
	subl	$2, %eax
	cmpb	$11, %al
	ja	.L895
	movzbl	%al, %eax
	movl	CSWTCH.85@GOTOFF(%ebx,%eax,4), %edx
	movl	%edx, %eax
	negl	%eax
.L806:
.LVL653:
	.loc 1 3101 0
	addl	20(%edi), %eax
	.loc 1 3102 0
	subl	$4, %esp
	.cfi_def_cfa_offset 148
.LBE3455:
.LBE3454:
.LBB3458:
.LBB2995:
.LBB2907:
.LBB2806:
	.loc 1 969 0
	addl	$1, %ebp
.LVL654:
.LBE2806:
.LBE2907:
.LBE2995:
.LBE3458:
.LBB3459:
.LBB3456:
	.loc 1 3101 0
	movl	%eax, 20(%edi)
.LVL655:
	.loc 1 3102 0
	pushl	%edx
	.cfi_def_cfa_offset 152
	pushl	%eax
	.cfi_def_cfa_offset 156
	movl	160(%esp), %esi
	movl	164(%esp), %eax
	addl	112(%esi), %eax
	pushl	%eax
	.cfi_def_cfa_offset 160
	call	memcpy@PLT
.LVL656:
	.loc 1 3103 0
	subl	$1, 20(%edi)
	addl	$16, %esp
	.cfi_def_cfa_offset 144
	jmp	.L313
.LVL657:
	.p2align 4,,10
	.p2align 3
.L364:
.LBE3456:
.LBE3459:
.LBB3460:
.LBB2768:
	.loc 1 3054 0
	movl	20(%edi), %eax
	movzbl	(%eax), %ecx
	.loc 1 3056 0
	leal	-4(%eax), %esi
	movl	%esi, 40(%esp)
	movl	%esi, 20(%edi)
	movl	-4(%eax), %esi
	.loc 1 3054 0
	movb	%cl, 8(%esp)
	xorl	$16, %ecx
.LVL658:
.LBB2763:
.LBB2756:
	.loc 4 482 0
	cmpb	$13, %cl
.LBE2756:
.LBE2763:
	.loc 1 3056 0
	movl	%esi, 24(%esp)
.LVL659:
.LBB2764:
.LBB2757:
	.loc 4 482 0
	ja	.L642
	movzbl	%cl, %esi
.LVL660:
	movl	.L644@GOTOFF(%ebx,%esi,4), %edx
	addl	%ebx, %edx
	jmp	*%edx
	.section	.rodata
	.align 4
	.align 4
.L644:
	.long	.L642@GOTOFF
	.long	.L642@GOTOFF
	.long	.L643@GOTOFF
	.long	.L645@GOTOFF
	.long	.L867@GOTOFF
	.long	.L645@GOTOFF
	.long	.L645@GOTOFF
	.long	.L647@GOTOFF
	.long	.L647@GOTOFF
	.long	.L643@GOTOFF
	.long	.L647@GOTOFF
	.long	.L645@GOTOFF
	.long	.L645@GOTOFF
	.long	.L645@GOTOFF
	.text
.LVL661:
	.p2align 4,,10
	.p2align 3
.L363:
.LBE2757:
.LBE2764:
.LBE2768:
.LBE3460:
.LBB3461:
.LBB3462:
	.loc 1 3007 0
	movl	20(%edi), %eax
	movzbl	(%eax), %ecx
.LVL662:
	cmpb	$8, %cl
	jbe	.L973
.L627:
.LVL663:
.LBB3463:
.LBB3464:
.LBB3465:
.LBB3466:
	.loc 2 27 0
	leal	.LC0@GOTOFF(%ebx), %esi
	.loc 2 26 0
	movl	$0, 92(%esp)
	movl	$0, 96(%esp)
	movl	$0, 100(%esp)
	.loc 2 27 0
	subl	$12, %esp
	.cfi_def_cfa_offset 156
	pushl	%esi
	.cfi_def_cfa_offset 160
	call	strlen@PLT
.LVL664:
	movl	%eax, 116(%esp)
	.loc 2 28 0
	addl	$1, %eax
	movl	%eax, 112(%esp)
	.loc 2 29 0
	movl	%eax, (%esp)
	call	kmalloc@PLT
.LVL665:
	movl	%eax, 108(%esp)
	.loc 2 30 0
	popl	%edx
	.cfi_def_cfa_offset 156
	popl	%ecx
	.cfi_def_cfa_offset 152
	pushl	%esi
	.cfi_def_cfa_offset 156
	pushl	%eax
	.cfi_def_cfa_offset 160
	call	strcpy@PLT
.LVL666:
.LBE3466:
.LBE3465:
.LBE3464:
	.loc 1 3029 0
	popl	%esi
	.cfi_def_cfa_offset 156
	leal	.LC44@GOTOFF(%ebx), %eax
	pushl	32(%esp)
	.cfi_def_cfa_offset 160
	pushl	$10
	.cfi_def_cfa_offset 164
	pushl	$3029
	.cfi_def_cfa_offset 168
	pushl	%eax
	.cfi_def_cfa_offset 172
	pushl	%edi
	.cfi_def_cfa_offset 176
	call	_ZN7Runtime9rtThrowExEPKciNS_8RtExTypeEN4kstd6stringE
.LVL667:
.LBB3467:
.LBB3468:
	.loc 2 43 0
	addl	$20, %esp
	.cfi_def_cfa_offset 156
	pushl	104(%esp)
	.cfi_def_cfa_offset 160
	call	kfree@PLT
.LVL668:
	movl	20(%edi), %edx
	addl	$16, %esp
	.cfi_def_cfa_offset 144
.L631:
.LVL669:
.LBE3468:
.LBE3467:
.LBE3463:
	.loc 1 3035 0
	movl	-5(%edx), %esi
	.loc 1 3039 0
	movl	28(%esp), %ecx
	.loc 1 3035 0
	leal	-5(%edx), %eax
	movl	%eax, 20(%edi)
	.loc 1 3039 0
	cmpl	%ecx, 1(%esi)
	.loc 1 3035 0
	movl	%esi, 8(%esp)
.LVL670:
	.loc 1 3036 0
	movzbl	(%esi), %edx
.LVL671:
	.loc 1 3039 0
	jbe	.L974
.LVL672:
.L634:
.LBB3475:
.LBB3476:
	.loc 4 482 0
	cmpb	$13, %dl
	ja	.L635
	movzbl	%dl, %ecx
	movl	.L637@GOTOFF(%ebx,%ecx,4), %esi
	addl	%ebx, %esi
	jmp	*%esi
	.section	.rodata
	.align 4
	.align 4
.L637:
	.long	.L635@GOTOFF
	.long	.L635@GOTOFF
	.long	.L636@GOTOFF
	.long	.L864@GOTOFF
	.long	.L865@GOTOFF
	.long	.L864@GOTOFF
	.long	.L864@GOTOFF
	.long	.L640@GOTOFF
	.long	.L640@GOTOFF
	.long	.L636@GOTOFF
	.long	.L640@GOTOFF
	.long	.L864@GOTOFF
	.long	.L864@GOTOFF
	.long	.L864@GOTOFF
	.text
.LVL673:
	.p2align 4,,10
	.p2align 3
.L362:
.LBE3476:
.LBE3475:
.LBE3462:
.LBE3461:
.LBB3499:
.LBB3500:
	.loc 1 2954 0
	movl	20(%edi), %eax
	movzbl	(%eax), %ecx
.LVL674:
	cmpb	$8, %cl
	jbe	.L975
.L663:
.LVL675:
.LBB3501:
.LBB3502:
.LBB3503:
.LBB3504:
	.loc 2 27 0
	leal	.LC0@GOTOFF(%ebx), %esi
	.loc 2 26 0
	movl	$0, 92(%esp)
	movl	$0, 96(%esp)
	movl	$0, 100(%esp)
	.loc 2 27 0
	subl	$12, %esp
	.cfi_def_cfa_offset 156
	pushl	%esi
	.cfi_def_cfa_offset 160
	call	strlen@PLT
.LVL676:
	movl	%eax, 116(%esp)
	.loc 2 28 0
	addl	$1, %eax
	movl	%eax, 112(%esp)
	.loc 2 29 0
	movl	%eax, (%esp)
	call	kmalloc@PLT
.LVL677:
	movl	%eax, 108(%esp)
	.loc 2 30 0
	popl	%edx
	.cfi_def_cfa_offset 156
	popl	%ecx
	.cfi_def_cfa_offset 152
	pushl	%esi
	.cfi_def_cfa_offset 156
	pushl	%eax
	.cfi_def_cfa_offset 160
	call	strcpy@PLT
.LVL678:
.LBE3504:
.LBE3503:
.LBE3502:
	.loc 1 2976 0
	popl	%esi
	.cfi_def_cfa_offset 156
	leal	.LC44@GOTOFF(%ebx), %eax
	pushl	32(%esp)
	.cfi_def_cfa_offset 160
	pushl	$10
	.cfi_def_cfa_offset 164
	pushl	$2976
	.cfi_def_cfa_offset 168
	pushl	%eax
	.cfi_def_cfa_offset 172
	pushl	%edi
	.cfi_def_cfa_offset 176
	call	_ZN7Runtime9rtThrowExEPKciNS_8RtExTypeEN4kstd6stringE
.LVL679:
.LBB3505:
.LBB3506:
	.loc 2 43 0
	addl	$20, %esp
	.cfi_def_cfa_offset 156
	pushl	104(%esp)
	.cfi_def_cfa_offset 160
	call	kfree@PLT
.LVL680:
	movl	20(%edi), %edx
	addl	$16, %esp
	.cfi_def_cfa_offset 144
.L667:
.LVL681:
.LBE3506:
.LBE3505:
.LBE3501:
	.loc 1 2988 0
	movl	-5(%edx), %ecx
.LVL682:
	leal	-5(%edx), %eax
	movl	%eax, 8(%esp)
	movl	%eax, 20(%edi)
	.loc 1 2992 0
	movl	32(%esp), %eax
	cmpl	%eax, 1(%ecx)
	.loc 1 2989 0
	movzbl	(%ecx), %esi
.LVL683:
	.loc 1 2992 0
	jbe	.L976
.LVL684:
.L670:
.LBB3513:
.LBB3514:
	.loc 4 482 0
	movl	%esi, %edx
	cmpb	$13, %dl
	ja	.L671
.LVL685:
	movzbl	%dl, %edx
.LVL686:
	movl	.L860@GOTOFF(%ebx,%edx,4), %eax
	addl	%ebx, %eax
	jmp	*%eax
	.section	.rodata
	.align 4
	.align 4
.L860:
	.long	.L671@GOTOFF
	.long	.L671@GOTOFF
	.long	.L859@GOTOFF
	.long	.L912@GOTOFF
	.long	.L858@GOTOFF
	.long	.L912@GOTOFF
	.long	.L912@GOTOFF
	.long	.L913@GOTOFF
	.long	.L913@GOTOFF
	.long	.L859@GOTOFF
	.long	.L913@GOTOFF
	.long	.L912@GOTOFF
	.long	.L912@GOTOFF
	.long	.L912@GOTOFF
	.text
.LVL687:
	.p2align 4,,10
	.p2align 3
.L361:
	movl	148(%esp), %eax
	movl	8(%eax), %edx
.LVL688:
	movl	28(%edx), %eax
.LVL689:
.LBE3514:
.LBE3513:
.LBE3500:
.LBE3499:
.LBB3547:
.LBB3548:
	.loc 1 3119 0
	movb	$1, 32(%edx)
.LVL690:
	movzbl	(%eax), %eax
.LVL691:
	subl	$2, %eax
.LVL692:
	cmpb	$11, %al
	ja	.L905
	movzbl	%al, %eax
	movl	CSWTCH.85@GOTOFF(%ebx,%eax,4), %ecx
	movl	%ecx, %eax
	negl	%eax
.L816:
.LVL693:
	.loc 1 3121 0
	addl	20(%edi), %eax
	.loc 1 3122 0
	subl	$4, %esp
	.cfi_def_cfa_offset 148
.LBE3548:
.LBE3547:
.LBB3551:
.LBB2996:
.LBB2908:
.LBB2807:
	.loc 1 969 0
	addl	$1, %ebp
.LVL694:
.LBE2807:
.LBE2908:
.LBE2996:
.LBE3551:
.LBB3552:
.LBB3549:
	.loc 1 3121 0
	movl	%eax, 20(%edi)
.LVL695:
	.loc 1 3122 0
	pushl	%ecx
	.cfi_def_cfa_offset 152
	pushl	%eax
	.cfi_def_cfa_offset 156
	movl	168(%esp), %eax
	addl	24(%edx), %eax
	pushl	%eax
	.cfi_def_cfa_offset 160
	call	memcpy@PLT
.LVL696:
	.loc 1 3123 0
	subl	$1, 20(%edi)
	addl	$16, %esp
	.cfi_def_cfa_offset 144
	jmp	.L313
.LVL697:
	.p2align 4,,10
	.p2align 3
.L366:
.LBE3549:
.LBE3552:
.LBB3553:
.LBB3554:
	.loc 1 3076 0
	movl	20(%edi), %edx
	movzbl	(%edx), %ecx
.LVL698:
.LBB3555:
.LBB3556:
	.loc 4 482 0
	cmpb	$13, %cl
	ja	.L794
	movzbl	%cl, %eax
	movl	.L796@GOTOFF(%ebx,%eax,4), %esi
	addl	%ebx, %esi
	jmp	*%esi
	.section	.rodata
	.align 4
	.align 4
.L796:
	.long	.L794@GOTOFF
	.long	.L794@GOTOFF
	.long	.L795@GOTOFF
	.long	.L797@GOTOFF
	.long	.L888@GOTOFF
	.long	.L797@GOTOFF
	.long	.L797@GOTOFF
	.long	.L889@GOTOFF
	.long	.L889@GOTOFF
	.long	.L795@GOTOFF
	.long	.L889@GOTOFF
	.long	.L797@GOTOFF
	.long	.L797@GOTOFF
	.long	.L797@GOTOFF
	.text
.LVL699:
	.p2align 4,,10
	.p2align 3
.L365:
.LBE3556:
.LBE3555:
.LBE3554:
.LBE3553:
.LBB3572:
.LBB3573:
	.loc 1 3128 0
	movl	20(%edi), %eax
	movzbl	(%eax), %ecx
.LVL700:
.LBB3574:
.LBB3575:
	.loc 4 482 0
	cmpb	$13, %cl
	ja	.L817
	movzbl	%cl, %edx
	movl	.L819@GOTOFF(%ebx,%edx,4), %esi
	addl	%ebx, %esi
	jmp	*%esi
	.section	.rodata
	.align 4
	.align 4
.L819:
	.long	.L817@GOTOFF
	.long	.L817@GOTOFF
	.long	.L818@GOTOFF
	.long	.L820@GOTOFF
	.long	.L906@GOTOFF
	.long	.L820@GOTOFF
	.long	.L820@GOTOFF
	.long	.L907@GOTOFF
	.long	.L907@GOTOFF
	.long	.L818@GOTOFF
	.long	.L907@GOTOFF
	.long	.L820@GOTOFF
	.long	.L820@GOTOFF
	.long	.L820@GOTOFF
	.text
.LVL701:
	.p2align 4,,10
	.p2align 3
.L367:
.LBE3575:
.LBE3574:
.LBE3573:
.LBE3572:
	.loc 1 1478 0
	movl	1(%ebp), %edx
.LVL702:
	movl	148(%esp), %ecx
.LBB3613:
.LBB3614:
	.loc 1 2925 0
	xorl	%esi, %esi
	leal	(%edx,%edx,2), %eax
	movl	116(%ecx,%eax,4), %eax
	movzbl	(%eax), %eax
	subl	$2, %eax
	cmpb	$11, %al
	ja	.L651
	movzbl	%al, %eax
	movl	CSWTCH.85@GOTOFF(%ebx,%eax,4), %esi
.L651:
.LVL703:
	.loc 1 2926 0
	movl	148(%esp), %ecx
	leal	(%edx,%edx,2), %eax
	movl	152(%esp), %edx
.LVL704:
	subl	$4, %esp
	.cfi_def_cfa_offset 148
.LBE3614:
.LBE3613:
	.loc 1 1479 0
	addl	$4, %ebp
.LVL705:
.LBB3617:
.LBB2997:
.LBB2909:
.LBB2808:
	.loc 1 969 0
	addl	$1, %ebp
.LVL706:
.LBE2808:
.LBE2909:
.LBE2997:
.LBE3617:
.LBB3618:
.LBB3615:
	.loc 1 2926 0
	leal	(%ecx,%eax,4), %ecx
	movl	20(%edi), %eax
	addl	112(%ecx), %edx
	movl	%ecx, 12(%esp)
	addl	$1, %eax
	movl	%eax, 20(%edi)
.LVL707:
	pushl	%esi
	.cfi_def_cfa_offset 152
.LVL708:
	pushl	%edx
	.cfi_def_cfa_offset 156
	pushl	%eax
	.cfi_def_cfa_offset 160
	call	memcpy@PLT
.LVL709:
	.loc 1 2927 0
	addl	20(%edi), %esi
	movl	24(%esp), %ecx
.LBE3615:
.LBE3618:
	.loc 1 1481 0
	addl	$16, %esp
	.cfi_def_cfa_offset 144
.LBB3619:
.LBB3616:
	.loc 1 2927 0
	movl	%esi, 20(%edi)
	movl	116(%ecx), %eax
	movzbl	(%eax), %eax
	movb	%al, (%esi)
.LVL710:
	jmp	.L313
.LVL711:
	.p2align 4,,10
	.p2align 3
.L374:
.LBE3616:
.LBE3619:
.LBB3620:
.LBB3621:
	.loc 1 3099 0
	movl	148(%esp), %eax
	movb	$1, 144(%eax)
.LVL712:
	movl	140(%eax), %eax
	movzbl	(%eax), %eax
	subl	$2, %eax
	cmpb	$11, %al
	ja	.L897
	movzbl	%al, %eax
	movl	CSWTCH.85@GOTOFF(%ebx,%eax,4), %edx
	movl	%edx, %eax
	negl	%eax
.L808:
.LVL713:
	.loc 1 3101 0
	addl	20(%edi), %eax
	.loc 1 3102 0
	subl	$4, %esp
	.cfi_def_cfa_offset 148
.LBE3621:
.LBE3620:
.LBB3624:
.LBB2998:
.LBB2910:
.LBB2809:
	.loc 1 969 0
	addl	$1, %ebp
.LVL714:
.LBE2809:
.LBE2910:
.LBE2998:
.LBE3624:
.LBB3625:
.LBB3622:
	.loc 1 3101 0
	movl	%eax, 20(%edi)
.LVL715:
	.loc 1 3102 0
	pushl	%edx
	.cfi_def_cfa_offset 152
	pushl	%eax
	.cfi_def_cfa_offset 156
	movl	160(%esp), %esi
	movl	164(%esp), %eax
	addl	136(%esi), %eax
	pushl	%eax
	.cfi_def_cfa_offset 160
	call	memcpy@PLT
.LVL716:
	.loc 1 3103 0
	subl	$1, 20(%edi)
	addl	$16, %esp
	.cfi_def_cfa_offset 144
	jmp	.L313
.LVL717:
	.p2align 4,,10
	.p2align 3
.L370:
	movl	148(%esp), %eax
.LBE3622:
.LBE3625:
.LBB3626:
.LBB3627:
	.loc 1 2925 0
	xorl	%esi, %esi
	movl	140(%eax), %eax
	movzbl	(%eax), %eax
	subl	$2, %eax
	cmpb	$11, %al
	ja	.L654
	movzbl	%al, %eax
	movl	CSWTCH.85@GOTOFF(%ebx,%eax,4), %esi
.L654:
.LVL718:
	.loc 1 2926 0
	movl	148(%esp), %eax
	movl	152(%esp), %edx
	subl	$4, %esp
	.cfi_def_cfa_offset 148
.LBE3627:
.LBE3626:
.LBB3629:
.LBB2999:
.LBB2911:
.LBB2810:
	.loc 1 969 0
	addl	$1, %ebp
.LVL719:
.LBE2810:
.LBE2911:
.LBE2999:
.LBE3629:
.LBB3630:
.LBB3628:
	.loc 1 2926 0
	addl	136(%eax), %edx
	movl	20(%edi), %eax
	addl	$1, %eax
	movl	%eax, 20(%edi)
.LVL720:
	pushl	%esi
	.cfi_def_cfa_offset 152
	pushl	%edx
	.cfi_def_cfa_offset 156
	pushl	%eax
	.cfi_def_cfa_offset 160
	call	memcpy@PLT
.LVL721:
	.loc 1 2927 0
	movl	20(%edi), %eax
	movl	164(%esp), %ecx
	addl	$16, %esp
	.cfi_def_cfa_offset 144
	addl	%esi, %eax
	movl	%eax, 20(%edi)
	movl	140(%ecx), %edx
	movzbl	(%edx), %edx
	movb	%dl, (%eax)
	jmp	.L313
.LVL722:
	.p2align 4,,10
	.p2align 3
.L369:
	movl	148(%esp), %eax
.LBE3628:
.LBE3630:
.LBB3631:
.LBB3632:
	.loc 1 2925 0
	xorl	%esi, %esi
	movl	128(%eax), %eax
	movzbl	(%eax), %eax
	subl	$2, %eax
	cmpb	$11, %al
	ja	.L653
	movzbl	%al, %eax
	movl	CSWTCH.85@GOTOFF(%ebx,%eax,4), %esi
.L653:
.LVL723:
	.loc 1 2926 0
	movl	148(%esp), %eax
	movl	152(%esp), %edx
	subl	$4, %esp
	.cfi_def_cfa_offset 148
.LBE3632:
.LBE3631:
.LBB3634:
.LBB3000:
.LBB2912:
.LBB2811:
	.loc 1 969 0
	addl	$1, %ebp
.LVL724:
.LBE2811:
.LBE2912:
.LBE3000:
.LBE3634:
.LBB3635:
.LBB3633:
	.loc 1 2926 0
	addl	124(%eax), %edx
	movl	20(%edi), %eax
	addl	$1, %eax
	movl	%eax, 20(%edi)
.LVL725:
	pushl	%esi
	.cfi_def_cfa_offset 152
	pushl	%edx
	.cfi_def_cfa_offset 156
	pushl	%eax
	.cfi_def_cfa_offset 160
	call	memcpy@PLT
.LVL726:
	.loc 1 2927 0
	movl	20(%edi), %eax
	addl	%esi, %eax
	movl	164(%esp), %esi
	addl	$16, %esp
	.cfi_def_cfa_offset 144
	movl	%eax, 20(%edi)
	movl	128(%esi), %edx
	movzbl	(%edx), %edx
	movb	%dl, (%eax)
	jmp	.L313
.LVL727:
	.p2align 4,,10
	.p2align 3
.L375:
.LBE3633:
.LBE3635:
.LBB3636:
.LBB3637:
	.loc 1 2933 0
	movl	148(%esp), %eax
	.loc 1 2934 0
	xorl	%esi, %esi
	.loc 1 2933 0
	imull	$92, 1(%ebp), %edx
	movl	304(%eax), %eax
	movl	16(%eax), %ecx
	addl	%edx, %ecx
.LVL728:
	movl	84(%ecx), %eax
	movzbl	(%eax), %eax
	subl	$2, %eax
	cmpb	$11, %al
	ja	.L655
	movzbl	%al, %eax
	movl	CSWTCH.85@GOTOFF(%ebx,%eax,4), %esi
.L655:
.LVL729:
	.loc 1 2935 0
	movl	20(%edi), %eax
	movl	(%ecx), %edx
	subl	$4, %esp
	.cfi_def_cfa_offset 148
	movl	%ecx, 12(%esp)
.LBE3637:
.LBE3636:
	.loc 1 1494 0
	addl	$4, %ebp
.LVL730:
.LBB3640:
.LBB3001:
.LBB2913:
.LBB2812:
	.loc 1 969 0
	addl	$1, %ebp
.LVL731:
.LBE2812:
.LBE2913:
.LBE3001:
.LBE3640:
.LBB3641:
.LBB3638:
	.loc 1 2935 0
	addl	$1, %eax
	movl	%eax, 20(%edi)
.LVL732:
	pushl	%esi
	.cfi_def_cfa_offset 152
.LVL733:
	pushl	%edx
	.cfi_def_cfa_offset 156
	pushl	%eax
	.cfi_def_cfa_offset 160
	call	memcpy@PLT
.LVL734:
	.loc 1 2937 0
	addl	20(%edi), %esi
	movl	24(%esp), %ecx
.LBE3638:
.LBE3641:
	.loc 1 1496 0
	addl	$16, %esp
	.cfi_def_cfa_offset 144
.LBB3642:
.LBB3639:
	.loc 1 2937 0
	movl	%esi, 20(%edi)
	movl	84(%ecx), %eax
	movzbl	(%eax), %eax
	movb	%al, (%esi)
.LVL735:
	jmp	.L313
.LVL736:
	.p2align 4,,10
	.p2align 3
.L371:
.LBE3639:
.LBE3642:
	.loc 1 2464 0
	movl	1(%ebp), %edx
.LVL737:
.LBB3643:
.LBB3644:
	.loc 1 3099 0
	movl	148(%esp), %esi
	leal	(%edx,%edx,2), %eax
	leal	(%esi,%eax,4), %eax
	movb	$1, 120(%eax)
.LVL738:
	movl	116(%eax), %eax
	movzbl	(%eax), %eax
	subl	$2, %eax
	cmpb	$11, %al
	ja	.L894
	movzbl	%al, %eax
	movl	CSWTCH.85@GOTOFF(%ebx,%eax,4), %ecx
	movl	%ecx, %eax
	negl	%eax
.L805:
.LVL739:
	.loc 1 3101 0
	addl	20(%edi), %eax
	.loc 1 3102 0
	subl	$4, %esp
	.cfi_def_cfa_offset 148
.LBE3644:
.LBE3643:
	.loc 1 2465 0
	addl	$4, %ebp
.LVL740:
.LBB3647:
.LBB3002:
.LBB2914:
.LBB2813:
	.loc 1 969 0
	addl	$1, %ebp
.LVL741:
.LBE2813:
.LBE2914:
.LBE3002:
.LBE3647:
.LBB3648:
.LBB3645:
	.loc 1 3101 0
	movl	%eax, 20(%edi)
.LVL742:
	.loc 1 3102 0
	pushl	%ecx
	.cfi_def_cfa_offset 152
	pushl	%eax
	.cfi_def_cfa_offset 156
	movl	160(%esp), %ecx
	leal	(%edx,%edx,2), %eax
	movl	164(%esp), %esi
	addl	112(%ecx,%eax,4), %esi
	pushl	%esi
	.cfi_def_cfa_offset 160
	call	memcpy@PLT
.LVL743:
	.loc 1 3103 0
	subl	$1, 20(%edi)
.LVL744:
.LBE3645:
.LBE3648:
	.loc 1 2467 0
	addl	$16, %esp
	.cfi_def_cfa_offset 144
	jmp	.L313
.LVL745:
	.p2align 4,,10
	.p2align 3
.L373:
.LBB3649:
.LBB3650:
	.loc 1 3099 0
	movl	148(%esp), %eax
	movb	$1, 132(%eax)
.LVL746:
	movl	128(%eax), %eax
	movzbl	(%eax), %eax
	subl	$2, %eax
	cmpb	$11, %al
	ja	.L896
	movzbl	%al, %eax
	movl	CSWTCH.85@GOTOFF(%ebx,%eax,4), %edx
	movl	%edx, %eax
	negl	%eax
.L807:
.LVL747:
	.loc 1 3101 0
	addl	20(%edi), %eax
	.loc 1 3102 0
	subl	$4, %esp
	.cfi_def_cfa_offset 148
.LBE3650:
.LBE3649:
.LBB3653:
.LBB3003:
.LBB2915:
.LBB2814:
	.loc 1 969 0
	addl	$1, %ebp
.LVL748:
.LBE2814:
.LBE2915:
.LBE3003:
.LBE3653:
.LBB3654:
.LBB3651:
	.loc 1 3101 0
	movl	%eax, 20(%edi)
.LVL749:
	.loc 1 3102 0
	pushl	%edx
	.cfi_def_cfa_offset 152
	pushl	%eax
	.cfi_def_cfa_offset 156
	movl	160(%esp), %ecx
	movl	164(%esp), %eax
	addl	124(%ecx), %eax
	pushl	%eax
	.cfi_def_cfa_offset 160
	call	memcpy@PLT
.LVL750:
	.loc 1 3103 0
	subl	$1, 20(%edi)
	addl	$16, %esp
	.cfi_def_cfa_offset 144
	jmp	.L313
.LVL751:
	.p2align 4,,10
	.p2align 3
.L360:
	movl	148(%esp), %eax
	movl	8(%eax), %edx
.LVL752:
	movl	16(%edx), %eax
.LVL753:
.LBE3651:
.LBE3654:
.LBB3655:
.LBB3656:
	.loc 1 3119 0
	movb	$1, 20(%edx)
.LVL754:
	movzbl	(%eax), %eax
.LVL755:
	subl	$2, %eax
.LVL756:
	cmpb	$11, %al
	ja	.L904
	movzbl	%al, %eax
	movl	CSWTCH.85@GOTOFF(%ebx,%eax,4), %ecx
	movl	%ecx, %eax
	negl	%eax
.L815:
.LVL757:
	.loc 1 3121 0
	addl	20(%edi), %eax
	.loc 1 3122 0
	subl	$4, %esp
	.cfi_def_cfa_offset 148
.LBE3656:
.LBE3655:
.LBB3659:
.LBB3004:
.LBB2916:
.LBB2815:
	.loc 1 969 0
	addl	$1, %ebp
.LVL758:
.LBE2815:
.LBE2916:
.LBE3004:
.LBE3659:
.LBB3660:
.LBB3657:
	.loc 1 3121 0
	movl	%eax, 20(%edi)
.LVL759:
	.loc 1 3122 0
	pushl	%ecx
	.cfi_def_cfa_offset 152
	pushl	%eax
	.cfi_def_cfa_offset 156
	movl	168(%esp), %eax
	addl	12(%edx), %eax
	pushl	%eax
	.cfi_def_cfa_offset 160
	call	memcpy@PLT
.LVL760:
	.loc 1 3123 0
	subl	$1, 20(%edi)
	addl	$16, %esp
	.cfi_def_cfa_offset 144
	jmp	.L313
.LVL761:
	.p2align 4,,10
	.p2align 3
.L359:
	movl	148(%esp), %eax
	movl	8(%eax), %edx
.LVL762:
	movl	4(%edx), %eax
.LVL763:
.LBE3657:
.LBE3660:
.LBB3661:
.LBB3662:
	.loc 1 3119 0
	movb	$1, 8(%edx)
.LVL764:
	movzbl	(%eax), %eax
.LVL765:
	subl	$2, %eax
.LVL766:
	cmpb	$11, %al
	ja	.L903
	movzbl	%al, %eax
	movl	CSWTCH.85@GOTOFF(%ebx,%eax,4), %ecx
	movl	%ecx, %eax
	negl	%eax
.L814:
.LVL767:
	.loc 1 3121 0
	addl	20(%edi), %eax
	.loc 1 3122 0
	subl	$4, %esp
	.cfi_def_cfa_offset 148
.LBE3662:
.LBE3661:
.LBB3665:
.LBB3005:
.LBB2917:
.LBB2816:
	.loc 1 969 0
	addl	$1, %ebp
.LVL768:
.LBE2816:
.LBE2917:
.LBE3005:
.LBE3665:
.LBB3666:
.LBB3663:
	.loc 1 3121 0
	movl	%eax, 20(%edi)
.LVL769:
	.loc 1 3122 0
	pushl	%ecx
	.cfi_def_cfa_offset 152
	pushl	%eax
	.cfi_def_cfa_offset 156
	movl	168(%esp), %eax
	addl	(%edx), %eax
	pushl	%eax
	.cfi_def_cfa_offset 160
	call	memcpy@PLT
.LVL770:
	.loc 1 3123 0
	subl	$1, 20(%edi)
	addl	$16, %esp
	.cfi_def_cfa_offset 144
	jmp	.L313
.LVL771:
	.p2align 4,,10
	.p2align 3
.L358:
.LBE3663:
.LBE3666:
.LBB3667:
.LBB3668:
	.loc 1 3118 0
	movl	1(%ebp), %eax
	leal	(%eax,%eax,2), %edx
	movl	148(%esp), %eax
	movl	8(%eax), %eax
	leal	(%eax,%edx,4), %edx
.LVL772:
	movl	4(%edx), %eax
	.loc 1 3119 0
	movb	$1, 8(%edx)
.LVL773:
	movzbl	(%eax), %eax
.LVL774:
	subl	$2, %eax
.LVL775:
	cmpb	$11, %al
	ja	.L902
	movzbl	%al, %eax
	movl	CSWTCH.85@GOTOFF(%ebx,%eax,4), %ecx
	movl	%ecx, %eax
	negl	%eax
.L813:
.LVL776:
	.loc 1 3121 0
	addl	20(%edi), %eax
	.loc 1 3122 0
	subl	$4, %esp
	.cfi_def_cfa_offset 148
.LBE3668:
.LBE3667:
	.loc 1 2499 0
	addl	$4, %ebp
.LVL777:
.LBB3671:
.LBB3006:
.LBB2918:
.LBB2817:
	.loc 1 969 0
	addl	$1, %ebp
.LVL778:
.LBE2817:
.LBE2918:
.LBE3006:
.LBE3671:
.LBB3672:
.LBB3669:
	.loc 1 3121 0
	movl	%eax, 20(%edi)
.LVL779:
	.loc 1 3122 0
	pushl	%ecx
	.cfi_def_cfa_offset 152
.LVL780:
	pushl	%eax
	.cfi_def_cfa_offset 156
	movl	168(%esp), %eax
	addl	(%edx), %eax
	pushl	%eax
	.cfi_def_cfa_offset 160
	call	memcpy@PLT
.LVL781:
	.loc 1 3123 0
	subl	$1, 20(%edi)
.LVL782:
.LBE3669:
.LBE3672:
	.loc 1 2501 0
	addl	$16, %esp
	.cfi_def_cfa_offset 144
	jmp	.L313
.LVL783:
	.p2align 4,,10
	.p2align 3
.L357:
	movl	148(%esp), %eax
.LBB3673:
.LBB3674:
	.loc 1 2944 0
	xorl	%esi, %esi
	movl	8(%eax), %ecx
.LVL784:
	movl	28(%ecx), %eax
.LVL785:
	movzbl	(%eax), %eax
	subl	$2, %eax
	cmpb	$11, %al
	ja	.L662
	movzbl	%al, %eax
	movl	CSWTCH.85@GOTOFF(%ebx,%eax,4), %esi
.L662:
.LVL786:
	.loc 1 2945 0
	movl	156(%esp), %edx
	movl	20(%edi), %eax
	subl	$4, %esp
	.cfi_def_cfa_offset 148
	addl	24(%ecx), %edx
	movl	%ecx, 12(%esp)
.LBE3674:
.LBE3673:
.LBB3676:
.LBB3007:
.LBB2919:
.LBB2818:
	.loc 1 969 0
	addl	$1, %ebp
.LVL787:
.LBE2818:
.LBE2919:
.LBE3007:
.LBE3676:
.LBB3677:
.LBB3675:
	.loc 1 2945 0
	addl	$1, %eax
	movl	%eax, 20(%edi)
.LVL788:
	pushl	%esi
	.cfi_def_cfa_offset 152
	pushl	%edx
	.cfi_def_cfa_offset 156
	pushl	%eax
	.cfi_def_cfa_offset 160
	call	memcpy@PLT
.LVL789:
	.loc 1 2947 0
	addl	20(%edi), %esi
	movl	24(%esp), %ecx
	addl	$16, %esp
	.cfi_def_cfa_offset 144
	movl	%esi, 20(%edi)
	movl	28(%ecx), %eax
	movzbl	(%eax), %eax
	movb	%al, (%esi)
	jmp	.L313
.LVL790:
	.p2align 4,,10
	.p2align 3
.L356:
	movl	148(%esp), %eax
.LBE3675:
.LBE3677:
.LBB3678:
.LBB3679:
	.loc 1 2944 0
	xorl	%esi, %esi
	movl	8(%eax), %ecx
.LVL791:
	movl	16(%ecx), %eax
.LVL792:
	movzbl	(%eax), %eax
	subl	$2, %eax
	cmpb	$11, %al
	ja	.L661
	movzbl	%al, %eax
	movl	CSWTCH.85@GOTOFF(%ebx,%eax,4), %esi
.L661:
.LVL793:
	.loc 1 2945 0
	movl	156(%esp), %edx
	movl	20(%edi), %eax
	subl	$4, %esp
	.cfi_def_cfa_offset 148
	addl	12(%ecx), %edx
	movl	%ecx, 12(%esp)
.LBE3679:
.LBE3678:
.LBB3681:
.LBB3008:
.LBB2920:
.LBB2819:
	.loc 1 969 0
	addl	$1, %ebp
.LVL794:
.LBE2819:
.LBE2920:
.LBE3008:
.LBE3681:
.LBB3682:
.LBB3680:
	.loc 1 2945 0
	addl	$1, %eax
	movl	%eax, 20(%edi)
.LVL795:
	pushl	%esi
	.cfi_def_cfa_offset 152
	pushl	%edx
	.cfi_def_cfa_offset 156
	pushl	%eax
	.cfi_def_cfa_offset 160
	call	memcpy@PLT
.LVL796:
	.loc 1 2947 0
	addl	20(%edi), %esi
	movl	24(%esp), %ecx
	addl	$16, %esp
	.cfi_def_cfa_offset 144
	movl	%esi, 20(%edi)
	movl	16(%ecx), %eax
	movzbl	(%eax), %eax
	movb	%al, (%esi)
	jmp	.L313
.LVL797:
	.p2align 4,,10
	.p2align 3
.L344:
.LBE3680:
.LBE3682:
.LBB3683:
.LBB3684:
.LBB3685:
	.loc 1 3384 0
	movl	20(%edi), %ecx
	cmpb	$10, (%ecx)
	ja	.L514
	movzbl	(%ecx), %eax
	movl	.L516@GOTOFF(%ebx,%eax,4), %esi
	addl	%ebx, %esi
	jmp	*%esi
	.section	.rodata
	.align 4
	.align 4
.L516:
	.long	.L514@GOTOFF
	.long	.L514@GOTOFF
	.long	.L515@GOTOFF
	.long	.L517@GOTOFF
	.long	.L518@GOTOFF
	.long	.L514@GOTOFF
	.long	.L950@GOTOFF
	.long	.L521@GOTOFF
	.long	.L521@GOTOFF
	.long	.L514@GOTOFF
	.long	.L522@GOTOFF
	.text
.LVL798:
	.p2align 4,,10
	.p2align 3
.L352:
.LBE3685:
.LBE3684:
.LBE3683:
.LBB3705:
	.loc 1 786 0
	movl	148(%esp), %eax
	.loc 1 784 0
	movl	1(%ebp), %edx
.LVL799:
	.loc 1 785 0
	addl	$4, %ebp
.LVL800:
	.loc 1 786 0
	movl	304(%eax), %eax
	movl	12(%eax), %eax
	movl	(%eax,%edx,4), %eax
	.loc 1 791 0
	movl	108(%eax), %edx
.LVL801:
	.loc 1 786 0
	movl	%eax, 8(%esp)
.LVL802:
	.loc 1 793 0
	movl	20(%edi), %eax
.LVL803:
	.loc 1 791 0
	testl	%edx, %edx
	je	.L977
	.loc 1 793 0
	movl	%eax, %ecx
	subl	%edx, %ecx
	addl	$1, %ecx
	movl	%ecx, 40(%esp)
.LVL804:
.L441:
.LBB3706:
	.loc 1 798 0
	movl	8(%esp), %ecx
.LBE3706:
	.loc 1 796 0
	movl	%eax, %esi
	subl	%edx, %esi
	movl	%esi, 24(%esp)
.LVL805:
.LBB3737:
	.loc 1 798 0
	testb	$1, 296(%ecx)
	je	.L978
.LBB3707:
	.loc 1 809 0
	movl	8(%esp), %eax
	movl	308(%eax), %ecx
	testl	%ecx, %ecx
	je	.L979
.LVL806:
.L449:
.LBB3708:
.LBB3709:
	.loc 3 92 0
	movl	504(%edi), %eax
	movl	508(%edi), %esi
	cmpl	%esi, %eax
	jnb	.L450
	movl	500(%edi), %esi
.LVL807:
.L451:
	.loc 3 97 0
	leal	1(%eax), %edx
	leal	(%eax,%eax,2), %eax
	movl	8(%esp), %ecx
.LBE3709:
.LBE3708:
	.loc 1 816 0
	subl	$4, %esp
	.cfi_def_cfa_offset 148
.LBB3718:
.LBB3716:
	.loc 3 97 0
	leal	(%esi,%eax,4), %eax
	movl	44(%esp), %esi
	movl	%edx, 504(%edi)
	movl	%ecx, (%eax)
	movl	$0, 4(%eax)
	movl	%esi, 8(%eax)
.LVL808:
.LBE3716:
.LBE3718:
	.loc 1 816 0
	pushl	%esi
	.cfi_def_cfa_offset 152
	pushl	%ecx
	.cfi_def_cfa_offset 156
	pushl	%edi
	.cfi_def_cfa_offset 160
	call	*308(%ecx)
.LVL809:
	addl	$16, %esp
	.cfi_def_cfa_offset 144
.L448:
.LBE3707:
.LBE3737:
.LBB3738:
	.loc 1 819 0
	movl	8(%esp), %eax
	movl	292(%eax), %eax
	movzbl	(%eax), %ecx
	cmpb	$1, %cl
	je	.L455
.LVL810:
	cmpb	$13, %cl
	ja	.L456
	movl	$1, %eax
	sall	%cl, %eax
	testl	$14972, %eax
	jne	.L861
	testl	$1408, %eax
	je	.L456
	movl	$9, %esi
.LBB3739:
.LBB3740:
.LBB3741:
	.loc 4 522 0
	movl	$8, %edx
	jmp	.L457
.LVL811:
	.p2align 4,,10
	.p2align 3
.L351:
.LBE3741:
.LBE3740:
.LBE3739:
.LBE3738:
.LBE3705:
.LBB3758:
.LBB3759:
.LBB3760:
	.loc 2 27 0
	leal	.LC0@GOTOFF(%ebx), %esi
	.loc 2 26 0
	movl	$0, 92(%esp)
	movl	$0, 96(%esp)
	movl	$0, 100(%esp)
	.loc 2 27 0
	subl	$12, %esp
	.cfi_def_cfa_offset 156
.LBE3760:
.LBE3759:
.LBE3758:
.LBB3763:
.LBB3009:
.LBB2921:
.LBB2820:
	.loc 1 969 0
	addl	$1, %ebp
.LVL812:
.LBE2820:
.LBE2921:
.LBE3009:
.LBE3763:
.LBB3764:
.LBB3762:
.LBB3761:
	.loc 2 27 0
	pushl	%esi
	.cfi_def_cfa_offset 160
	call	strlen@PLT
.LVL813:
	movl	%eax, 116(%esp)
	.loc 2 28 0
	addl	$1, %eax
	movl	%eax, 112(%esp)
	.loc 2 29 0
	movl	%eax, (%esp)
	call	kmalloc@PLT
.LVL814:
	movl	%eax, 108(%esp)
	.loc 2 30 0
	popl	%edx
	.cfi_def_cfa_offset 156
	popl	%ecx
	.cfi_def_cfa_offset 152
	pushl	%esi
	.cfi_def_cfa_offset 156
	pushl	%eax
	.cfi_def_cfa_offset 160
	call	strcpy@PLT
.LVL815:
.LBE3761:
.LBE3762:
.LBE3764:
	.loc 1 1464 0
	popl	%esi
	.cfi_def_cfa_offset 156
	leal	.LC44@GOTOFF(%ebx), %eax
	pushl	32(%esp)
	.cfi_def_cfa_offset 160
	pushl	$2
	.cfi_def_cfa_offset 164
	pushl	$1464
	.cfi_def_cfa_offset 168
	pushl	%eax
	.cfi_def_cfa_offset 172
	pushl	%edi
	.cfi_def_cfa_offset 176
	call	_ZN7Runtime9rtThrowExEPKciNS_8RtExTypeEN4kstd6stringE
.LVL816:
.LBB3765:
.LBB3766:
	.loc 2 43 0
	addl	$20, %esp
	.cfi_def_cfa_offset 156
	pushl	104(%esp)
	.cfi_def_cfa_offset 160
	call	kfree@PLT
.LVL817:
.LBE3766:
.LBE3765:
	.loc 1 1466 0
	addl	$16, %esp
	.cfi_def_cfa_offset 144
	jmp	.L313
	.p2align 4,,10
	.p2align 3
.L350:
	.loc 1 1454 0
	movl	20(%edi), %eax
	movl	-4(%eax), %edx
	testl	%edx, %edx
	jne	.L980
.L625:
	.loc 1 1457 0
	addl	$5, %ebp
.LVL818:
.L626:
	.loc 1 1458 0
	subl	$5, %eax
	movl	%eax, 20(%edi)
	.loc 1 1460 0
	jmp	.L313
	.p2align 4,,10
	.p2align 3
.L349:
	.loc 1 1444 0
	movl	20(%edi), %eax
	movl	-4(%eax), %ecx
	testl	%ecx, %ecx
	jne	.L625
.LVL819:
	.loc 1 1445 0
	movl	148(%esp), %ecx
	movl	(%ecx), %edx
	addl	1(%ebp), %edx
	movl	%edx, %ebp
.LVL820:
	jmp	.L626
.LVL821:
	.p2align 4,,10
	.p2align 3
.L336:
.LBB3767:
	.loc 1 950 0
	movl	20(%edi), %esi
.LVL822:
.LBB3010:
	.loc 1 951 0
	cmpb	$8, (%esi)
	ja	.L547
	movzbl	(%esi), %eax
	movl	.L549@GOTOFF(%ebx,%eax,4), %ecx
	addl	%ebx, %ecx
	jmp	*%ecx
	.section	.rodata
	.align 4
	.align 4
.L549:
	.long	.L547@GOTOFF
	.long	.L547@GOTOFF
	.long	.L548@GOTOFF
	.long	.L550@GOTOFF
	.long	.L551@GOTOFF
	.long	.L552@GOTOFF
	.long	.L553@GOTOFF
	.long	.L554@GOTOFF
	.long	.L555@GOTOFF
	.text
.LVL823:
	.p2align 4,,10
	.p2align 3
.L335:
.LBE3010:
.LBE3767:
.LBB3768:
	.loc 1 1919 0
	movl	20(%edi), %eax
.LVL824:
.LBE3768:
.LBB3769:
.LBB3011:
.LBB2922:
.LBB2821:
	.loc 1 969 0
	addl	$1, %ebp
.LVL825:
.LBE2821:
.LBE2922:
.LBE3011:
.LBE3769:
.LBB3770:
	.loc 1 1922 0
	fldl	-17(%eax)
	.loc 1 1923 0
	subl	$9, %eax
.LVL826:
	.loc 1 1922 0
	fmull	1(%eax)
.LVL827:
	fstpl	-8(%eax)
.LVL828:
	.loc 1 1923 0
	movl	%eax, 20(%edi)
.LVL829:
	jmp	.L313
.LVL830:
	.p2align 4,,10
	.p2align 3
.L334:
.LBE3770:
.LBB3771:
	.loc 1 1823 0
	movl	20(%edi), %ecx
.LVL831:
.LBB3772:
	.loc 1 1824 0
	cmpb	$8, (%ecx)
	ja	.L709
	movzbl	(%ecx), %eax
	movl	.L711@GOTOFF(%ebx,%eax,4), %esi
	addl	%ebx, %esi
	jmp	*%esi
	.section	.rodata
	.align 4
	.align 4
.L711:
	.long	.L709@GOTOFF
	.long	.L709@GOTOFF
	.long	.L712@GOTOFF
	.long	.L712@GOTOFF
	.long	.L713@GOTOFF
	.long	.L715@GOTOFF
	.long	.L715@GOTOFF
	.long	.L716@GOTOFF
	.long	.L716@GOTOFF
	.text
.LVL832:
	.p2align 4,,10
	.p2align 3
.L333:
.LBE3772:
.LBE3771:
.LBB3791:
	.loc 1 2594 0
	movl	20(%edi), %eax
.LVL833:
.LBE3791:
.LBB3792:
.LBB3012:
.LBB2923:
.LBB2822:
	.loc 1 969 0
	addl	$1, %ebp
.LVL834:
.LBE2822:
.LBE2923:
.LBE3012:
.LBE3792:
.LBB3793:
	.loc 1 2597 0
	fldl	-17(%eax)
	.loc 1 2598 0
	subl	$9, %eax
.LVL835:
	.loc 1 2597 0
	fsubl	1(%eax)
.LVL836:
	fstpl	-8(%eax)
.LVL837:
	.loc 1 2598 0
	movl	%eax, 20(%edi)
.LVL838:
	jmp	.L313
.LVL839:
	.p2align 4,,10
	.p2align 3
.L332:
.LBE3793:
.LBB3794:
	.loc 1 2519 0
	movl	20(%edi), %ecx
.LVL840:
.LBB3795:
	.loc 1 2521 0
	cmpb	$8, (%ecx)
	ja	.L836
	movzbl	(%ecx), %eax
	movl	.L838@GOTOFF(%ebx,%eax,4), %esi
	addl	%ebx, %esi
	jmp	*%esi
	.section	.rodata
	.align 4
	.align 4
.L838:
	.long	.L836@GOTOFF
	.long	.L836@GOTOFF
	.long	.L837@GOTOFF
	.long	.L839@GOTOFF
	.long	.L840@GOTOFF
	.long	.L841@GOTOFF
	.long	.L842@GOTOFF
	.long	.L843@GOTOFF
	.long	.L844@GOTOFF
	.text
.LVL841:
	.p2align 4,,10
	.p2align 3
.L331:
.LBE3795:
.LBE3794:
.LBB3817:
	.loc 1 659 0
	movl	20(%edi), %eax
.LVL842:
.LBE3817:
.LBB3818:
.LBB3013:
.LBB2924:
.LBB2823:
	.loc 1 969 0
	addl	$1, %ebp
.LVL843:
.LBE2823:
.LBE2924:
.LBE3013:
.LBE3818:
.LBB3819:
	.loc 1 662 0
	fldl	-17(%eax)
	.loc 1 663 0
	subl	$9, %eax
.LVL844:
	.loc 1 662 0
	faddl	1(%eax)
.LVL845:
	fstpl	-8(%eax)
.LVL846:
	.loc 1 663 0
	movl	%eax, 20(%edi)
.LVL847:
	jmp	.L313
.LVL848:
	.p2align 4,,10
	.p2align 3
.L330:
.LBE3819:
.LBB3820:
	.loc 1 584 0
	movl	20(%edi), %ecx
.LVL849:
.LBB3821:
	.loc 1 585 0
	cmpb	$8, (%ecx)
	ja	.L421
	movzbl	(%ecx), %eax
	movl	.L423@GOTOFF(%ebx,%eax,4), %esi
	addl	%ebx, %esi
	jmp	*%esi
	.section	.rodata
	.align 4
	.align 4
.L423:
	.long	.L421@GOTOFF
	.long	.L421@GOTOFF
	.long	.L422@GOTOFF
	.long	.L424@GOTOFF
	.long	.L425@GOTOFF
	.long	.L427@GOTOFF
	.long	.L427@GOTOFF
	.long	.L429@GOTOFF
	.long	.L429@GOTOFF
	.text
.LVL850:
	.p2align 4,,10
	.p2align 3
.L329:
.LBE3821:
.LBE3820:
.LBB3841:
	.loc 1 1039 0
	movl	20(%edi), %eax
	movzbl	(%eax), %ecx
.LVL851:
	cmpb	$13, %cl
	jbe	.L981
.L556:
.LBB3842:
.LBB3843:
	.loc 4 524 0
	andl	$16, %ecx
.LVL852:
	jne	.L557
.LVL853:
.LBE3843:
.LBE3842:
.LBB3844:
	.loc 1 1079 0
	subl	$12, %esp
	.cfi_remember_state
	.cfi_def_cfa_offset 156
	pushl	$1
	.cfi_def_cfa_offset 160
	call	_ZN7Runtime11OpcodeToStrE6OpCode
.LVL854:
.LBB3845:
.LBB3846:
.LBB3847:
	.loc 2 26 0
	movl	$0, 108(%esp)
	.loc 2 27 0
	movl	%eax, (%esp)
.LBE3847:
.LBE3846:
.LBE3845:
	.loc 1 1079 0
	movl	%eax, %esi
.LVL855:
.LBB3850:
.LBB3849:
.LBB3848:
	.loc 2 26 0
	movl	$0, 112(%esp)
	movl	$0, 116(%esp)
	.loc 2 27 0
	call	strlen@PLT
.LVL856:
	movl	%eax, 116(%esp)
	.loc 2 28 0
	addl	$1, %eax
	movl	%eax, 112(%esp)
	.loc 2 29 0
	movl	%eax, (%esp)
	call	kmalloc@PLT
.LVL857:
	movl	%eax, 108(%esp)
	.loc 2 30 0
	popl	%edx
	.cfi_def_cfa_offset 156
	popl	%ecx
	.cfi_def_cfa_offset 152
	pushl	%esi
	.cfi_def_cfa_offset 156
	pushl	%eax
	.cfi_def_cfa_offset 160
	call	strcpy@PLT
.LVL858:
.LBE3848:
.LBE3849:
.LBE3850:
	.loc 1 1079 0
	popl	%esi
	.cfi_def_cfa_offset 156
	pushl	32(%esp)
	.cfi_def_cfa_offset 160
	pushl	$10
	.cfi_def_cfa_offset 164
	pushl	$1079
	.cfi_def_cfa_offset 168
	jmp	.L954
	.p2align 4,,10
	.p2align 3
.L340:
	.cfi_restore_state
.LVL859:
.LBE3844:
.LBE3841:
.LBB3858:
.LBB3859:
.LBB3860:
	.loc 1 3178 0
	movl	20(%edi), %eax
	movzbl	(%eax), %esi
	leal	-3(%esi), %edx
	cmpb	$7, %dl
	ja	.L504
	movzbl	%dl, %edx
	movl	.L506@GOTOFF(%ebx,%edx,4), %esi
	addl	%ebx, %esi
	jmp	*%esi
	.section	.rodata
	.align 4
	.align 4
.L506:
	.long	.L949@GOTOFF
	.long	.L509@GOTOFF
	.long	.L509@GOTOFF
	.long	.L509@GOTOFF
	.long	.L510@GOTOFF
	.long	.L510@GOTOFF
	.long	.L504@GOTOFF
	.long	.L512@GOTOFF
	.text
.LVL860:
	.p2align 4,,10
	.p2align 3
.L339:
.LBE3860:
.LBE3859:
.LBE3858:
.LBB3881:
.LBB3882:
.LBB3883:
	.loc 2 27 0
	leal	.LC0@GOTOFF(%ebx), %esi
	.loc 2 26 0
	movl	$0, 92(%esp)
	movl	$0, 96(%esp)
	movl	$0, 100(%esp)
	.loc 2 27 0
	subl	$12, %esp
	.cfi_def_cfa_offset 156
.LBE3883:
.LBE3882:
.LBE3881:
.LBB3886:
.LBB3014:
.LBB2925:
.LBB2824:
	.loc 1 969 0
	addl	$1, %ebp
.LVL861:
.LBE2824:
.LBE2925:
.LBE3014:
.LBE3886:
.LBB3887:
.LBB3885:
.LBB3884:
	.loc 2 27 0
	pushl	%esi
	.cfi_def_cfa_offset 160
	call	strlen@PLT
.LVL862:
	movl	%eax, 116(%esp)
	.loc 2 28 0
	addl	$1, %eax
	movl	%eax, 112(%esp)
	.loc 2 29 0
	movl	%eax, (%esp)
	call	kmalloc@PLT
.LVL863:
	movl	%eax, 108(%esp)
	.loc 2 30 0
	popl	%edx
	.cfi_def_cfa_offset 156
	popl	%ecx
	.cfi_def_cfa_offset 152
	pushl	%esi
	.cfi_def_cfa_offset 156
	pushl	%eax
	.cfi_def_cfa_offset 160
	call	strcpy@PLT
.LVL864:
.LBE3884:
.LBE3885:
.LBE3887:
	.loc 1 2283 0
	popl	%esi
	.cfi_def_cfa_offset 156
	leal	.LC44@GOTOFF(%ebx), %eax
	pushl	32(%esp)
	.cfi_def_cfa_offset 160
	pushl	$2
	.cfi_def_cfa_offset 164
	pushl	$2283
	.cfi_def_cfa_offset 168
	pushl	%eax
	.cfi_def_cfa_offset 172
	pushl	%edi
	.cfi_def_cfa_offset 176
	call	_ZN7Runtime9rtThrowExEPKciNS_8RtExTypeEN4kstd6stringE
.LVL865:
.LBB3888:
.LBB3889:
	.loc 2 43 0
	addl	$20, %esp
	.cfi_def_cfa_offset 156
	pushl	104(%esp)
	.cfi_def_cfa_offset 160
	call	kfree@PLT
.LVL866:
.LBE3889:
.LBE3888:
	.loc 1 2285 0
	addl	$16, %esp
	.cfi_def_cfa_offset 144
	jmp	.L313
	.p2align 4,,10
	.p2align 3
.L338:
.LBB3890:
	.loc 1 2209 0
	movl	20(%edi), %esi
.LVL867:
.LBB3891:
	.loc 1 2210 0
	cmpb	$8, (%esi)
	ja	.L759
	movzbl	(%esi), %eax
	movl	.L761@GOTOFF(%ebx,%eax,4), %ecx
	addl	%ebx, %ecx
	jmp	*%ecx
	.section	.rodata
	.align 4
	.align 4
.L761:
	.long	.L759@GOTOFF
	.long	.L759@GOTOFF
	.long	.L760@GOTOFF
	.long	.L762@GOTOFF
	.long	.L763@GOTOFF
	.long	.L764@GOTOFF
	.long	.L765@GOTOFF
	.long	.L766@GOTOFF
	.long	.L767@GOTOFF
	.text
.LVL868:
	.p2align 4,,10
	.p2align 3
.L337:
.LBE3891:
.LBE3890:
.LBB3913:
	.loc 1 1031 0
	movl	20(%edi), %eax
.LVL869:
.LBE3913:
.LBB3914:
.LBB3015:
.LBB2926:
.LBB2825:
	.loc 1 969 0
	addl	$1, %ebp
.LVL870:
.LBE2825:
.LBE2926:
.LBE3015:
.LBE3914:
.LBB3915:
	.loc 1 1034 0
	fldl	-17(%eax)
	.loc 1 1035 0
	subl	$9, %eax
.LVL871:
	.loc 1 1034 0
	fdivl	1(%eax)
.LVL872:
	fstpl	-8(%eax)
.LVL873:
	.loc 1 1035 0
	movl	%eax, 20(%edi)
.LVL874:
	jmp	.L313
.LVL875:
	.p2align 4,,10
	.p2align 3
.L342:
.LBE3915:
.LBB3916:
.LBB3917:
.LBB3918:
	.loc 1 3337 0
	movl	20(%edi), %eax
	cmpb	$8, (%eax)
	ja	.L477
	movzbl	(%eax), %edx
	movl	.L479@GOTOFF(%ebx,%edx,4), %ecx
	addl	%ebx, %ecx
	jmp	*%ecx
	.section	.rodata
	.align 4
	.align 4
.L479:
	.long	.L477@GOTOFF
	.long	.L477@GOTOFF
	.long	.L945@GOTOFF
	.long	.L477@GOTOFF
	.long	.L482@GOTOFF
	.long	.L482@GOTOFF
	.long	.L482@GOTOFF
	.long	.L483@GOTOFF
	.long	.L483@GOTOFF
	.text
.LVL876:
	.p2align 4,,10
	.p2align 3
.L341:
.LBE3918:
.LBE3917:
.LBE3916:
.LBB3927:
.LBB3928:
.LBB3929:
	.loc 1 3231 0
	movl	20(%edi), %eax
	cmpb	$10, (%eax)
	ja	.L467
	movzbl	(%eax), %edx
	movl	.L469@GOTOFF(%ebx,%edx,4), %esi
	addl	%ebx, %esi
	jmp	*%esi
	.section	.rodata
	.align 4
	.align 4
.L469:
	.long	.L467@GOTOFF
	.long	.L467@GOTOFF
	.long	.L468@GOTOFF
	.long	.L470@GOTOFF
	.long	.L467@GOTOFF
	.long	.L943@GOTOFF
	.long	.L943@GOTOFF
	.long	.L944@GOTOFF
	.long	.L944@GOTOFF
	.long	.L467@GOTOFF
	.long	.L475@GOTOFF
	.text
.LVL877:
	.p2align 4,,10
	.p2align 3
.L343:
.LBE3929:
.LBE3928:
.LBE3927:
.LBB3947:
.LBB3948:
.LBB3949:
	.loc 1 3284 0
	movl	20(%edi), %eax
	cmpb	$10, (%eax)
	ja	.L485
	movzbl	(%eax), %edx
	movl	.L487@GOTOFF(%ebx,%edx,4), %esi
	addl	%ebx, %esi
	jmp	*%esi
	.section	.rodata
	.align 4
	.align 4
.L487:
	.long	.L485@GOTOFF
	.long	.L485@GOTOFF
	.long	.L486@GOTOFF
	.long	.L488@GOTOFF
	.long	.L489@GOTOFF
	.long	.L490@GOTOFF
	.long	.L485@GOTOFF
	.long	.L946@GOTOFF
	.long	.L946@GOTOFF
	.long	.L485@GOTOFF
	.long	.L493@GOTOFF
	.text
.LVL878:
	.p2align 4,,10
	.p2align 3
.L354:
.LBE3949:
.LBE3948:
.LBE3947:
.LBB3971:
.LBB3972:
	.loc 1 2943 0
	movl	1(%ebp), %eax
	.loc 1 2944 0
	xorl	%esi, %esi
	.loc 1 2943 0
	leal	(%eax,%eax,2), %edx
	movl	148(%esp), %eax
	movl	8(%eax), %eax
	leal	(%eax,%edx,4), %ecx
.LVL879:
	movl	4(%ecx), %eax
	movzbl	(%eax), %eax
	subl	$2, %eax
	cmpb	$11, %al
	ja	.L659
	movzbl	%al, %eax
	movl	CSWTCH.85@GOTOFF(%ebx,%eax,4), %esi
.L659:
.LVL880:
	.loc 1 2945 0
	movl	156(%esp), %edx
	movl	20(%edi), %eax
	subl	$4, %esp
	.cfi_def_cfa_offset 148
	addl	(%ecx), %edx
	movl	%ecx, 12(%esp)
.LBE3972:
.LBE3971:
	.loc 1 1509 0
	addl	$4, %ebp
.LVL881:
.LBB3975:
.LBB3016:
.LBB2927:
.LBB2826:
	.loc 1 969 0
	addl	$1, %ebp
.LVL882:
.LBE2826:
.LBE2927:
.LBE3016:
.LBE3975:
.LBB3976:
.LBB3973:
	.loc 1 2945 0
	addl	$1, %eax
	movl	%eax, 20(%edi)
.LVL883:
	pushl	%esi
	.cfi_def_cfa_offset 152
.LVL884:
	pushl	%edx
	.cfi_def_cfa_offset 156
	pushl	%eax
	.cfi_def_cfa_offset 160
	call	memcpy@PLT
.LVL885:
	.loc 1 2947 0
	addl	20(%edi), %esi
	movl	24(%esp), %ecx
.LBE3973:
.LBE3976:
	.loc 1 1511 0
	addl	$16, %esp
	.cfi_def_cfa_offset 144
.LBB3977:
.LBB3974:
	.loc 1 2947 0
	movl	%esi, 20(%edi)
	movl	4(%ecx), %eax
	movzbl	(%eax), %eax
	movb	%al, (%esi)
.LVL886:
	jmp	.L313
.LVL887:
	.p2align 4,,10
	.p2align 3
.L348:
.LBE3974:
.LBE3977:
	.loc 1 1438 0
	movl	148(%esp), %eax
	movl	(%eax), %eax
	addl	1(%ebp), %eax
	movl	%eax, %ebp
.LVL888:
	.loc 1 1440 0
	jmp	.L313
.LVL889:
	.p2align 4,,10
	.p2align 3
.L355:
	movl	148(%esp), %eax
.LBB3978:
.LBB3979:
	.loc 1 2944 0
	xorl	%esi, %esi
	movl	8(%eax), %ecx
.LVL890:
	movl	4(%ecx), %eax
.LVL891:
	movzbl	(%eax), %eax
	subl	$2, %eax
	cmpb	$11, %al
	ja	.L660
	movzbl	%al, %eax
	movl	CSWTCH.85@GOTOFF(%ebx,%eax,4), %esi
.L660:
.LVL892:
	.loc 1 2945 0
	movl	156(%esp), %edx
	movl	20(%edi), %eax
	subl	$4, %esp
	.cfi_def_cfa_offset 148
	addl	(%ecx), %edx
	movl	%ecx, 12(%esp)
.LBE3979:
.LBE3978:
.LBB3981:
.LBB3017:
.LBB2928:
.LBB2827:
	.loc 1 969 0
	addl	$1, %ebp
.LVL893:
.LBE2827:
.LBE2928:
.LBE3017:
.LBE3981:
.LBB3982:
.LBB3980:
	.loc 1 2945 0
	addl	$1, %eax
	movl	%eax, 20(%edi)
.LVL894:
	pushl	%esi
	.cfi_def_cfa_offset 152
	pushl	%edx
	.cfi_def_cfa_offset 156
	pushl	%eax
	.cfi_def_cfa_offset 160
	call	memcpy@PLT
.LVL895:
	.loc 1 2947 0
	addl	20(%edi), %esi
	movl	24(%esp), %ecx
	addl	$16, %esp
	.cfi_def_cfa_offset 144
	movl	%esi, 20(%edi)
	movl	4(%ecx), %eax
	movzbl	(%eax), %eax
	movb	%al, (%esi)
	jmp	.L313
.LVL896:
	.p2align 4,,10
	.p2align 3
.L353:
.LBE3980:
.LBE3982:
.LBB3983:
	.loc 1 2070 0
	movl	20(%edi), %ecx
	.loc 1 2072 0
	addl	$4, %ebp
.LVL897:
	.loc 1 2070 0
	leal	-4(%ecx), %eax
	movl	%eax, 20(%edi)
.LVL898:
	.loc 1 2071 0
	movl	148(%esp), %eax
.LVL899:
	movl	304(%eax), %edx
	movl	-3(%ebp), %eax
	addl	24(%edx), %eax
.LVL900:
	.loc 1 2074 0
	movzbl	(%eax), %edx
.LVL901:
.LBB3984:
	.loc 1 2076 0
	cmpb	$13, %dl
	je	.L942
.LBE3984:
	.loc 1 2070 0
	movl	-4(%ecx), %esi
.LVL902:
.LBB3990:
.LBB3985:
.LBB3986:
.LBB3987:
	.loc 4 482 0
	ja	.L740
	movzbl	%dl, %eax
.LVL903:
	movl	.L742@GOTOFF(%ebx,%eax,4), %ecx
	addl	%ebx, %ecx
	jmp	*%ecx
	.section	.rodata
	.align 4
	.align 4
.L742:
	.long	.L740@GOTOFF
	.long	.L740@GOTOFF
	.long	.L741@GOTOFF
	.long	.L743@GOTOFF
	.long	.L744@GOTOFF
	.long	.L743@GOTOFF
	.long	.L743@GOTOFF
	.long	.L745@GOTOFF
	.long	.L745@GOTOFF
	.long	.L741@GOTOFF
	.long	.L745@GOTOFF
	.long	.L743@GOTOFF
	.long	.L743@GOTOFF
	.long	.L743@GOTOFF
	.text
.LVL904:
	.p2align 4,,10
	.p2align 3
.L346:
.LBE3987:
.LBE3986:
.LBE3985:
.LBE3990:
.LBE3983:
.LBB3993:
.LBB3994:
.LBB3995:
	.loc 1 3490 0
	movl	20(%edi), %eax
	cmpb	$10, (%eax)
	ja	.L524
	movzbl	(%eax), %edx
	movl	.L526@GOTOFF(%ebx,%edx,4), %ecx
	addl	%ebx, %ecx
	jmp	*%ecx
	.section	.rodata
	.align 4
	.align 4
.L526:
	.long	.L524@GOTOFF
	.long	.L524@GOTOFF
	.long	.L525@GOTOFF
	.long	.L527@GOTOFF
	.long	.L528@GOTOFF
	.long	.L529@GOTOFF
	.long	.L530@GOTOFF
	.long	.L524@GOTOFF
	.long	.L953@GOTOFF
	.long	.L524@GOTOFF
	.long	.L532@GOTOFF
	.text
.LVL905:
	.p2align 4,,10
	.p2align 3
.L345:
.LBE3995:
.LBE3994:
.LBE3993:
.LBB4024:
.LBB4025:
.LBB4026:
	.loc 1 3437 0
	movl	20(%edi), %eax
	cmpb	$10, (%eax)
	ja	.L494
	movzbl	(%eax), %edx
	movl	.L496@GOTOFF(%ebx,%edx,4), %ecx
	addl	%ebx, %ecx
	jmp	*%ecx
	.section	.rodata
	.align 4
	.align 4
.L496:
	.long	.L494@GOTOFF
	.long	.L494@GOTOFF
	.long	.L495@GOTOFF
	.long	.L497@GOTOFF
	.long	.L498@GOTOFF
	.long	.L499@GOTOFF
	.long	.L500@GOTOFF
	.long	.L948@GOTOFF
	.long	.L494@GOTOFF
	.long	.L494@GOTOFF
	.long	.L502@GOTOFF
	.text
.LVL906:
	.p2align 4,,10
	.p2align 3
.L347:
.LBE4026:
.LBE4025:
.LBE4024:
.LBB4051:
.LBB4052:
	.loc 1 834 0
	movl	20(%edi), %eax
	cmpb	$10, (%eax)
	ja	.L459
	movzbl	(%eax), %edx
	movl	.L461@GOTOFF(%ebx,%edx,4), %esi
	addl	%ebx, %esi
	jmp	*%esi
	.section	.rodata
	.align 4
	.align 4
.L461:
	.long	.L459@GOTOFF
	.long	.L459@GOTOFF
	.long	.L460@GOTOFF
	.long	.L459@GOTOFF
	.long	.L462@GOTOFF
	.long	.L460@GOTOFF
	.long	.L462@GOTOFF
	.long	.L463@GOTOFF
	.long	.L464@GOTOFF
	.long	.L459@GOTOFF
	.long	.L465@GOTOFF
	.text
	.p2align 4,,10
	.p2align 3
.L326:
.LVL907:
.LBE4052:
.LBE4051:
	.loc 1 2687 0
	subl	$12, %esp
	.cfi_def_cfa_offset 156
.LBB4075:
.LBB4076:
	.loc 6 24 0
	movl	$0, 712(%edi)
.LVL908:
.LBE4076:
.LBE4075:
	.loc 1 2687 0
	pushl	%eax
	.cfi_def_cfa_offset 160
	call	_ZN7Runtime11OpcodeToStrE6OpCode
.LVL909:
	movl	%eax, %esi
.LVL910:
.LBB4077:
.LBB4078:
.LBB4079:
	.loc 7 22 0
	leal	.LC162@GOTOFF(%ebx), %eax
	movl	%eax, (%esp)
	call	write@PLT
.LVL911:
.LBE4079:
.LBE4078:
.LBE4077:
.LBB4080:
.LBB4081:
.LBB4082:
	movl	%esi, (%esp)
.LBE4082:
.LBE4081:
.LBE4080:
.LBB4085:
.LBB4086:
.LBB4087:
	leal	.LC26@GOTOFF(%ebx), %esi
.LVL912:
.LBE4087:
.LBE4086:
.LBE4085:
.LBB4090:
.LBB4084:
.LBB4083:
	call	write@PLT
.LVL913:
.LBE4083:
.LBE4084:
.LBE4090:
.LBB4091:
.LBB4089:
.LBB4088:
	movl	%esi, (%esp)
	call	write@PLT
.LVL914:
.LBE4088:
.LBE4089:
.LBE4091:
	.loc 1 2688 0
	movl	164(%esp), %ecx
	movl	%ebp, %eax
.LBB4092:
.LBB4093:
.LBB4094:
	.loc 7 22 0
	leal	.LC163@GOTOFF(%ebx), %edx
.LBE4094:
.LBE4093:
.LBE4092:
	.loc 1 2688 0
	subl	(%ecx), %eax
.LBB4099:
.LBB4097:
.LBB4095:
	.loc 7 22 0
	movl	%edx, (%esp)
.LBE4095:
.LBE4097:
.LBE4099:
	.loc 1 2688 0
	movl	%eax, 24(%esp)
.LVL915:
.LBB4100:
.LBB4098:
.LBB4096:
	.loc 7 22 0
	call	write@PLT
.LVL916:
.LBE4096:
.LBE4098:
.LBE4100:
.LBB4101:
.LBB4102:
	.loc 6 29 0
	addl	$16, %esp
	.cfi_def_cfa_offset 144
	movl	8(%esp), %eax
.LVL917:
.LBB4103:
.LBB4104:
	.loc 7 46 0
	xorl	%edx, %edx
	subl	$8, %esp
	.cfi_def_cfa_offset 152
	pushl	%edx
	.cfi_def_cfa_offset 156
	pushl	%eax
	.cfi_def_cfa_offset 160
	call	lltoa@PLT
.LVL918:
	movl	%eax, (%esp)
	call	write@PLT
.LVL919:
	addl	$16, %esp
	.cfi_def_cfa_offset 144
.LVL920:
.LBE4104:
.LBE4103:
.LBE4102:
.LBE4101:
.LBB4105:
.LBB4106:
.LBB4107:
	.loc 7 22 0
	subl	$12, %esp
	.cfi_def_cfa_offset 156
	pushl	%esi
	.cfi_def_cfa_offset 160
.LBE4107:
.LBE4106:
.LBE4105:
.LBB4110:
.LBB4111:
.LBB4112:
	.loc 2 27 0
	leal	.LC0@GOTOFF(%ebx), %esi
.LBE4112:
.LBE4111:
.LBE4110:
.LBB4115:
.LBB4109:
.LBB4108:
	.loc 7 22 0
	call	write@PLT
.LVL921:
.LBE4108:
.LBE4109:
.LBE4115:
.LBB4116:
.LBB4117:
.LBB4118:
	leal	.LC164@GOTOFF(%ebx), %eax
	movl	%eax, (%esp)
	call	write@PLT
.LVL922:
.LBE4118:
.LBE4117:
.LBE4116:
.LBB4119:
.LBB4114:
.LBB4113:
	.loc 2 27 0
	movl	%esi, (%esp)
	.loc 2 26 0
	movl	$0, 108(%esp)
	movl	$0, 112(%esp)
	movl	$0, 116(%esp)
	.loc 2 27 0
	call	strlen@PLT
.LVL923:
	movl	%eax, 116(%esp)
	.loc 2 28 0
	addl	$1, %eax
	movl	%eax, 112(%esp)
	.loc 2 29 0
	movl	%eax, (%esp)
	call	kmalloc@PLT
.LVL924:
	movl	%eax, 108(%esp)
	.loc 2 30 0
	popl	%edx
	.cfi_def_cfa_offset 156
	popl	%ecx
	.cfi_def_cfa_offset 152
	pushl	%esi
	.cfi_def_cfa_offset 156
	pushl	%eax
	.cfi_def_cfa_offset 160
	call	strcpy@PLT
.LVL925:
.LBE4113:
.LBE4114:
.LBE4119:
	.loc 1 2691 0
	popl	%esi
	.cfi_def_cfa_offset 156
	pushl	32(%esp)
	.cfi_def_cfa_offset 160
	pushl	$5
	.cfi_def_cfa_offset 164
	pushl	$2691
	.cfi_def_cfa_offset 168
.LVL926:
.L954:
	leal	.LC44@GOTOFF(%ebx), %eax
.LBB4120:
.LBB3018:
.LBB2929:
.LBB2828:
	.loc 1 969 0
	addl	$1, %ebp
.LVL927:
.LBE2828:
.LBE2929:
.LBE3018:
.LBE4120:
	.loc 1 2691 0
	pushl	%eax
	.cfi_def_cfa_offset 172
	pushl	%edi
	.cfi_def_cfa_offset 176
	call	_ZN7Runtime9rtThrowExEPKciNS_8RtExTypeEN4kstd6stringE
.LVL928:
.LBB4121:
.LBB4122:
	.loc 2 43 0
	addl	$20, %esp
	.cfi_def_cfa_offset 156
	pushl	104(%esp)
	.cfi_def_cfa_offset 160
	call	kfree@PLT
.LVL929:
.LBE4122:
.LBE4121:
	.loc 1 2692 0
	addl	$16, %esp
	.cfi_def_cfa_offset 144
.LVL930:
	jmp	.L313
.L463:
.LVL931:
.LBB4123:
.LBB4069:
.LBB4053:
.LBB4054:
	.loc 1 857 0
	movl	-4(%eax), %edx
	fildq	-8(%eax)
	testl	%edx, %edx
	js	.L982
.L466:
	fstpl	-8(%eax)
.LVL932:
	.loc 1 858 0
	movl	%eax, 20(%edi)
.L465:
.LBE4054:
.LBE4053:
.LBE4069:
	.loc 1 867 0
	movb	$10, (%eax)
.L987:
.LBE4123:
.LBB4124:
.LBB3019:
.LBB2930:
.LBB2829:
	.loc 1 969 0
	addl	$1, %ebp
.LVL933:
	jmp	.L313
.LVL934:
.L485:
.LBE2829:
.LBE2930:
.LBE3019:
.LBE4124:
.LBB4125:
.LBB3967:
.LBB3963:
.LBB3950:
.LBB3951:
.LBB3952:
.LBB3953:
	.loc 2 27 0
	leal	.LC0@GOTOFF(%ebx), %esi
	.loc 2 26 0
	movl	$0, 92(%esp)
	movl	$0, 96(%esp)
	movl	$0, 100(%esp)
	.loc 2 27 0
	subl	$12, %esp
	.cfi_def_cfa_offset 156
	pushl	%esi
	.cfi_def_cfa_offset 160
	call	strlen@PLT
.LVL935:
	movl	%eax, 116(%esp)
	.loc 2 28 0
	addl	$1, %eax
	movl	%eax, 112(%esp)
	.loc 2 29 0
	movl	%eax, (%esp)
	call	kmalloc@PLT
.LVL936:
	movl	%eax, 108(%esp)
	.loc 2 30 0
	popl	%edx
	.cfi_def_cfa_offset 156
	popl	%ecx
	.cfi_def_cfa_offset 152
	pushl	%esi
	.cfi_def_cfa_offset 156
	pushl	%eax
	.cfi_def_cfa_offset 160
	call	strcpy@PLT
.LVL937:
.LBE3953:
.LBE3952:
.LBE3951:
	.loc 1 3328 0
	popl	%esi
	.cfi_def_cfa_offset 156
	leal	.LC44@GOTOFF(%ebx), %eax
	pushl	32(%esp)
	.cfi_def_cfa_offset 160
	pushl	$2
	.cfi_def_cfa_offset 164
	pushl	$3328
	.cfi_def_cfa_offset 168
	pushl	%eax
	.cfi_def_cfa_offset 172
	pushl	%edi
	.cfi_def_cfa_offset 176
	call	_ZN7Runtime9rtThrowExEPKciNS_8RtExTypeEN4kstd6stringE
.LVL938:
.LBB3954:
.LBB3955:
	.loc 2 43 0
	addl	$20, %esp
	.cfi_def_cfa_offset 156
	pushl	104(%esp)
	.cfi_def_cfa_offset 160
	call	kfree@PLT
.LVL939:
	movl	20(%edi), %eax
	addl	$16, %esp
	.cfi_def_cfa_offset 144
.L490:
.LBE3955:
.LBE3954:
.LBE3950:
.LBE3963:
	.loc 1 3331 0
	movb	$6, (%eax)
.L984:
.LBE3967:
.LBE4125:
.LBB4126:
.LBB3020:
.LBB2931:
.LBB2830:
	.loc 1 969 0
	addl	$1, %ebp
.LVL940:
	jmp	.L313
.LVL941:
.L483:
.LBE2830:
.LBE2931:
.LBE3020:
.LBE4126:
.LBB4127:
.LBB3925:
.LBB3923:
.LBB3919:
.LBB3920:
	.loc 1 3369 0
	subl	$8, %eax
.LVL942:
	.loc 1 3371 0
	addl	$4, %eax
.LVL943:
.L945:
	movl	%eax, 20(%edi)
.L477:
.LBE3920:
.LBE3919:
.LBE3923:
	.loc 1 3378 0
	movb	$3, (%eax)
.L983:
.LBE3925:
.LBE4127:
.LBB4128:
.LBB3021:
.LBB2932:
.LBB2831:
	.loc 1 969 0
	addl	$1, %ebp
.LVL944:
	jmp	.L313
.LVL945:
	.p2align 4,,10
	.p2align 3
.L316:
.LBE2831:
.LBE2932:
.LBE3021:
.LBE4128:
.LBE4337:
.LBE4340:
.LBB4341:
.LBB4342:
	.loc 2 27 0 discriminator 4
	subl	$12, %esp
	.cfi_def_cfa_offset 156
	pushl	28(%esp)
	.cfi_def_cfa_offset 160
	call	strlen@PLT
.LVL946:
	.loc 2 28 0 discriminator 4
	addl	$1, %eax
	.loc 2 29 0 discriminator 4
	movl	%eax, (%esp)
	call	kmalloc@PLT
.LVL947:
	movl	%eax, %esi
	.loc 2 30 0 discriminator 4
	popl	%eax
	.cfi_def_cfa_offset 156
	popl	%edx
	.cfi_def_cfa_offset 152
	pushl	24(%esp)
	.cfi_def_cfa_offset 156
	pushl	%esi
	.cfi_def_cfa_offset 160
	call	strcpy@PLT
.LVL948:
.LBE4342:
.LBE4341:
.LBB4343:
.LBB4344:
	.loc 2 145 0 discriminator 4
	popl	%ecx
	.cfi_def_cfa_offset 156
	popl	%eax
	.cfi_def_cfa_offset 152
	pushl	%esi
	.cfi_def_cfa_offset 156
	pushl	572(%edi)
	.cfi_def_cfa_offset 160
	call	strcmp@PLT
.LVL949:
.LBE4344:
.LBE4343:
.LBB4346:
.LBB4347:
	.loc 2 43 0 discriminator 4
	movl	%esi, (%esp)
.LBE4347:
.LBE4346:
.LBB4349:
.LBB4345:
	.loc 2 145 0 discriminator 4
	movl	%eax, 24(%esp)
.LVL950:
.LBE4345:
.LBE4349:
.LBB4350:
.LBB4348:
	.loc 2 43 0 discriminator 4
	call	kfree@PLT
.LVL951:
.LBE4348:
.LBE4350:
	.loc 1 557 0 discriminator 4
	addl	$16, %esp
	.cfi_def_cfa_offset 144
	movl	8(%esp), %eax
	testl	%eax, %eax
	jne	.L315
	.loc 1 559 0
	movl	560(%edi), %eax
	testl	%eax, %eax
	jg	.L317
.LVL952:
.L318:
	.loc 1 564 0
	testl	%eax, %eax
	jne	.L321
.L857:
	.loc 1 567 0
	cmpl	$1, 564(%edi)
	.loc 1 566 0
	movl	%ebp, 568(%edi)
	.loc 1 567 0
	je	.L324
.LVL953:
.LBB4351:
.LBB4352:
	.loc 2 27 0 discriminator 2
	subl	$12, %esp
	.cfi_def_cfa_offset 156
	pushl	28(%esp)
	.cfi_def_cfa_offset 160
	call	strlen@PLT
.LVL954:
	.loc 2 28 0 discriminator 2
	addl	$1, %eax
	.loc 2 29 0 discriminator 2
	movl	%eax, (%esp)
	call	kmalloc@PLT
.LVL955:
	movl	%eax, %esi
	.loc 2 30 0 discriminator 2
	popl	%eax
	.cfi_def_cfa_offset 156
	popl	%edx
	.cfi_def_cfa_offset 152
	pushl	24(%esp)
	.cfi_def_cfa_offset 156
	pushl	%esi
	.cfi_def_cfa_offset 160
	call	strcpy@PLT
.LVL956:
.LBE4352:
.LBE4351:
.LBB4353:
.LBB4354:
	.loc 2 145 0 discriminator 2
	popl	%ecx
	.cfi_def_cfa_offset 156
	popl	%eax
	.cfi_def_cfa_offset 152
	pushl	%esi
	.cfi_def_cfa_offset 156
	pushl	572(%edi)
	.cfi_def_cfa_offset 160
	call	strcmp@PLT
.LVL957:
.LBE4354:
.LBE4353:
.LBB4356:
.LBB4357:
	.loc 2 43 0 discriminator 2
	movl	%esi, (%esp)
.LBE4357:
.LBE4356:
.LBB4359:
.LBB4355:
	.loc 2 145 0 discriminator 2
	movl	%eax, 24(%esp)
.LVL958:
.LBE4355:
.LBE4359:
.LBB4360:
.LBB4358:
	.loc 2 43 0 discriminator 2
	call	kfree@PLT
.LVL959:
.LBE4358:
.LBE4360:
	.loc 1 567 0 discriminator 2
	addl	$16, %esp
	.cfi_def_cfa_offset 144
	movl	8(%esp), %eax
	testl	%eax, %eax
	je	.L324
	.loc 1 573 0
	movl	564(%edi), %edx
	.loc 1 574 0
	leal	-1(%edx), %eax
	cmpl	$2, %edx
	movl	$1, %edx
	cmovl	%edx, %eax
	movl	%eax, 564(%edi)
	jmp	.L315
.LVL960:
	.p2align 4,,10
	.p2align 3
.L324:
.LBB4361:
.LBB4362:
.LBB4363:
	.loc 4 56 0
	movl	148(%esp), %ecx
	movl	152(%esp), %esi
.LBE4363:
.LBE4362:
.LBE4361:
	.loc 1 569 0
	subl	$12, %esp
	.cfi_def_cfa_offset 156
.LBB4368:
.LBB4366:
.LBB4364:
	.loc 4 56 0
	movl	%edi, 104(%esp)
	movl	%ebp, 120(%esp)
.LBE4364:
.LBE4366:
.LBE4368:
	.loc 1 569 0
	movl	512(%edi), %eax
.LVL961:
.LBB4369:
.LBB4367:
.LBB4365:
	.loc 4 56 0
	movl	%ecx, 108(%esp)
	movl	168(%esp), %ecx
	movl	%esi, 112(%esp)
	movl	%ecx, 116(%esp)
.LBE4365:
.LBE4367:
.LBE4369:
	.loc 1 569 0
	pushl	32(%esp)
	.cfi_def_cfa_offset 160
	call	*%eax
.LVL962:
	.loc 1 570 0
	movl	$0, 560(%edi)
	.loc 1 571 0
	movl	$1, 564(%edi)
	addl	$16, %esp
	.cfi_def_cfa_offset 144
	jmp	.L315
.LVL963:
	.p2align 4,,10
	.p2align 3
.L970:
	.loc 1 579 0
	movl	$0, 560(%edi)
	jmp	.L315
.LVL964:
	.p2align 4,,10
	.p2align 3
.L969:
	.loc 1 562 0
	subl	$1, %eax
	.loc 1 564 0
	testl	%eax, %eax
	.loc 1 562 0
	movl	%eax, 560(%edi)
	.loc 1 564 0
	jne	.L321
	jmp	.L857
.LVL965:
.L981:
	movl	$1, %edx
	sall	%cl, %edx
	testl	$14972, %edx
	jne	.L557
	andl	$1408, %edx
	je	.L556
.LVL966:
.LBB4370:
.LBB4338:
.LBB4129:
.LBB3855:
.LBB3851:
	.loc 1 1067 0
	leal	1(%eax), %edx
	movl	%edx, 20(%edi)
	movzbl	-8(%eax), %edx
	movb	%dl, 1(%eax)
	.loc 1 1068 0
	movl	20(%edi), %edx
	leal	1(%edx), %ecx
	movl	%ecx, 20(%edi)
	movzbl	-7(%eax), %ecx
	movb	%cl, 1(%edx)
	.loc 1 1069 0
	movl	20(%edi), %edx
	leal	1(%edx), %ecx
	movl	%ecx, 20(%edi)
	movzbl	-6(%eax), %ecx
	movb	%cl, 1(%edx)
	.loc 1 1070 0
	movl	20(%edi), %edx
	leal	1(%edx), %ecx
	movl	%ecx, 20(%edi)
	movzbl	-5(%eax), %ecx
	movb	%cl, 1(%edx)
	.loc 1 1071 0
	movl	20(%edi), %edx
	leal	1(%edx), %ecx
	movl	%ecx, 20(%edi)
	movzbl	-4(%eax), %ecx
	movb	%cl, 1(%edx)
	jmp	.L959
.LVL967:
.L973:
	movl	$1, %edx
	sall	%cl, %edx
	testb	$80, %dl
	jne	.L628
	testb	$36, %dl
	jne	.L628
	andl	$384, %edx
	je	.L627
.LBE3851:
.LBE3855:
.LBE4129:
.LBB4130:
.LBB3492:
.LBB3481:
.LBB3469:
	.loc 1 3021 0
	leal	-4(%eax), %edx
	movl	-4(%eax), %esi
	.loc 1 3022 0
	movl	(%eax), %eax
	.loc 1 3021 0
	movl	%edx, 20(%edi)
	.loc 1 3022 0
	testl	%eax, %eax
	jne	.L916
	cmpl	$-2147483648, %esi
	jbe	.L632
.L916:
.LVL968:
.LBB3470:
.LBB3471:
.LBB3472:
	.loc 2 27 0
	leal	.LC0@GOTOFF(%ebx), %edx
	.loc 2 26 0
	movl	$0, 92(%esp)
	movl	$0, 96(%esp)
	movl	$0, 100(%esp)
	.loc 2 27 0
	subl	$12, %esp
	.cfi_def_cfa_offset 156
	pushl	%edx
	.cfi_def_cfa_offset 160
	movl	%edx, 24(%esp)
	call	strlen@PLT
.LVL969:
	movl	%eax, 116(%esp)
	.loc 2 28 0
	addl	$1, %eax
	movl	%eax, 112(%esp)
	.loc 2 29 0
	movl	%eax, (%esp)
	call	kmalloc@PLT
.LVL970:
	movl	%eax, 108(%esp)
	.loc 2 30 0
	popl	%edx
	.cfi_def_cfa_offset 156
	popl	%ecx
	.cfi_def_cfa_offset 152
	movl	16(%esp), %edx
	pushl	%edx
	.cfi_def_cfa_offset 156
	pushl	%eax
	.cfi_def_cfa_offset 160
	call	strcpy@PLT
.LVL971:
.LBE3472:
.LBE3471:
.LBE3470:
	.loc 1 3023 0
	popl	%eax
	.cfi_def_cfa_offset 156
	leal	.LC44@GOTOFF(%ebx), %eax
	pushl	32(%esp)
	.cfi_def_cfa_offset 160
	pushl	$9
	.cfi_def_cfa_offset 164
	pushl	$3023
	.cfi_def_cfa_offset 168
	pushl	%eax
	.cfi_def_cfa_offset 172
	pushl	%edi
	.cfi_def_cfa_offset 176
	call	_ZN7Runtime9rtThrowExEPKciNS_8RtExTypeEN4kstd6stringE
.LVL972:
.LBB3473:
.LBB3474:
	.loc 2 43 0
	addl	$20, %esp
	.cfi_def_cfa_offset 156
	pushl	104(%esp)
	.cfi_def_cfa_offset 160
	call	kfree@PLT
.LVL973:
	movl	20(%edi), %edx
	addl	$16, %esp
	.cfi_def_cfa_offset 144
.L632:
.LBE3474:
.LBE3473:
	.loc 1 3024 0
	movl	%esi, 28(%esp)
	jmp	.L631
.LVL974:
.L975:
	movl	$1, %edx
	sall	%cl, %edx
	testb	$80, %dl
	jne	.L664
	testb	$36, %dl
	jne	.L664
	andl	$384, %edx
	je	.L663
.LBE3469:
.LBE3481:
.LBE3492:
.LBE4130:
.LBB4131:
.LBB3538:
.LBB3519:
.LBB3507:
	.loc 1 2968 0
	leal	-8(%eax), %edx
	movl	-8(%eax), %esi
	.loc 1 2969 0
	movl	-4(%eax), %eax
	.loc 1 2968 0
	movl	%edx, 20(%edi)
	.loc 1 2969 0
	testl	%eax, %eax
	jne	.L917
	cmpl	$-2147483648, %esi
	jbe	.L668
.L917:
.LVL975:
.LBB3508:
.LBB3509:
.LBB3510:
	.loc 2 27 0
	leal	.LC0@GOTOFF(%ebx), %edx
	.loc 2 26 0
	movl	$0, 92(%esp)
	movl	$0, 96(%esp)
	movl	$0, 100(%esp)
	.loc 2 27 0
	subl	$12, %esp
	.cfi_def_cfa_offset 156
	pushl	%edx
	.cfi_def_cfa_offset 160
	movl	%edx, 24(%esp)
	call	strlen@PLT
.LVL976:
	movl	%eax, 116(%esp)
	.loc 2 28 0
	addl	$1, %eax
	movl	%eax, 112(%esp)
	.loc 2 29 0
	movl	%eax, (%esp)
	call	kmalloc@PLT
.LVL977:
	movl	%eax, 108(%esp)
	.loc 2 30 0
	popl	%edx
	.cfi_def_cfa_offset 156
	popl	%ecx
	.cfi_def_cfa_offset 152
	movl	16(%esp), %edx
	pushl	%edx
	.cfi_def_cfa_offset 156
	pushl	%eax
	.cfi_def_cfa_offset 160
	call	strcpy@PLT
.LVL978:
.LBE3510:
.LBE3509:
.LBE3508:
	.loc 1 2970 0
	popl	%eax
	.cfi_def_cfa_offset 156
	leal	.LC44@GOTOFF(%ebx), %eax
	pushl	32(%esp)
	.cfi_def_cfa_offset 160
	pushl	$9
	.cfi_def_cfa_offset 164
	pushl	$2970
	.cfi_def_cfa_offset 168
	pushl	%eax
	.cfi_def_cfa_offset 172
	pushl	%edi
	.cfi_def_cfa_offset 176
	call	_ZN7Runtime9rtThrowExEPKciNS_8RtExTypeEN4kstd6stringE
.LVL979:
.LBB3511:
.LBB3512:
	.loc 2 43 0
	addl	$20, %esp
	.cfi_def_cfa_offset 156
	pushl	104(%esp)
	.cfi_def_cfa_offset 160
	call	kfree@PLT
.LVL980:
	movl	20(%edi), %edx
	addl	$16, %esp
	.cfi_def_cfa_offset 144
.L668:
.LBE3512:
.LBE3511:
	.loc 1 2971 0
	movl	%esi, 32(%esp)
	jmp	.L667
.LVL981:
.L980:
.LBE3507:
.LBE3519:
.LBE3538:
.LBE4131:
	.loc 1 1455 0
	movl	148(%esp), %esi
	movl	(%esi), %edx
	addl	1(%ebp), %edx
	movl	%edx, %ebp
.LVL982:
	jmp	.L626
.LVL983:
.L977:
.LBB4132:
	.loc 1 790 0
	movl	$0, 40(%esp)
	jmp	.L441
.LVL984:
.L757:
.LBE4132:
.LBB4133:
	.loc 1 2199 0
	leal	-9(%eax), %ecx
	subl	$5, %eax
	andl	$16, %edx
.LVL985:
	cmove	%ecx, %eax
.LBE4133:
.LBB4134:
.LBB3022:
.LBB2933:
.LBB2832:
	.loc 1 969 0
	addl	$1, %ebp
.LVL986:
.LBE2832:
.LBE2933:
.LBE3022:
.LBE4134:
.LBB4135:
	.loc 1 2199 0
	movl	%eax, 20(%edi)
.LVL987:
	jmp	.L313
.LVL988:
.L972:
	movl	$1, %eax
	sall	%cl, %eax
	testl	$1408, %eax
	je	.L786
.LBE4135:
.LBB4136:
	.loc 1 2448 0
	movl	20(%edi), %eax
	subl	$8, %eax
	.loc 1 2449 0
	jmp	.L787
.LVL989:
.L482:
.LBE4136:
.LBB4137:
.LBB3926:
.LBB3924:
.LBB3922:
.LBB3921:
	.loc 1 3357 0
	subl	$4, %eax
.LVL990:
	.loc 1 3359 0
	addl	$4, %eax
	movl	%eax, 20(%edi)
.LVL991:
.LBE3921:
.LBE3922:
.LBE3924:
	.loc 1 3378 0
	movb	$3, (%eax)
	jmp	.L983
.LVL992:
.L902:
.LBE3926:
.LBE4137:
.LBB4138:
.LBB3670:
	.loc 1 3120 0
	xorl	%eax, %eax
	xorl	%ecx, %ecx
	jmp	.L813
.LVL993:
.L903:
.LBE3670:
.LBE4138:
.LBB4139:
.LBB3664:
	xorl	%eax, %eax
	xorl	%ecx, %ecx
	jmp	.L814
.LVL994:
.L904:
.LBE3664:
.LBE4139:
.LBB4140:
.LBB3658:
	xorl	%eax, %eax
	xorl	%ecx, %ecx
	jmp	.L815
.LVL995:
.L896:
.LBE3658:
.LBE4140:
.LBB4141:
.LBB3652:
	.loc 1 3100 0
	xorl	%eax, %eax
	xorl	%edx, %edx
	jmp	.L807
.LVL996:
.L901:
.LBE3652:
.LBE4141:
.LBB4142:
.LBB3413:
	.loc 1 3110 0
	xorl	%eax, %eax
	xorl	%ecx, %ecx
	jmp	.L812
.LVL997:
.L905:
.LBE3413:
.LBE4142:
.LBB4143:
.LBB3550:
	.loc 1 3120 0
	xorl	%eax, %eax
	xorl	%ecx, %ecx
	jmp	.L816
.LVL998:
.L895:
.LBE3550:
.LBE4143:
.LBB4144:
.LBB3457:
	.loc 1 3100 0
	xorl	%eax, %eax
	xorl	%edx, %edx
	jmp	.L806
.LVL999:
.L898:
.LBE3457:
.LBE4144:
.LBB4145:
.LBB3431:
	.loc 1 3110 0
	xorl	%edx, %edx
	xorl	%ecx, %ecx
	jmp	.L809
.LVL1000:
.L894:
.LBE3431:
.LBE4145:
.LBB4146:
.LBB3646:
	.loc 1 3100 0
	xorl	%eax, %eax
	xorl	%ecx, %ecx
	jmp	.L805
.LVL1001:
.L897:
.LBE3646:
.LBE4146:
.LBB4147:
.LBB3623:
	xorl	%eax, %eax
	xorl	%edx, %edx
	jmp	.L808
.LVL1002:
.L899:
.LBE3623:
.LBE4147:
.LBB4148:
.LBB3425:
	.loc 1 3110 0
	xorl	%eax, %eax
	xorl	%ecx, %ecx
	jmp	.L810
.LVL1003:
.L900:
.LBE3425:
.LBE4148:
.LBB4149:
.LBB3419:
	xorl	%eax, %eax
	xorl	%ecx, %ecx
	jmp	.L811
.LVL1004:
.L509:
.LBE3419:
.LBE4149:
.LBB4150:
.LBB3877:
.LBB3873:
.LBB3861:
.LBB3862:
	.loc 1 3198 0
	subl	$4, %eax
.LVL1005:
	.loc 1 3200 0
	addl	$4, %eax
	movl	%eax, 20(%edi)
.LVL1006:
.L513:
.LBE3862:
.LBE3861:
.LBE3873:
	.loc 1 3225 0
	movb	$2, (%eax)
.LBE3877:
.LBE4150:
.LBB4151:
.LBB3023:
.LBB2934:
.LBB2833:
	.loc 1 969 0
	addl	$1, %ebp
.LVL1007:
	jmp	.L313
.LVL1008:
.L439:
.LBE2833:
.LBE2934:
.LBE3023:
.LBE4151:
.LBB4152:
.LBB3241:
.LBB3202:
.LBB3203:
	.loc 1 738 0
	movl	-4(%esi), %eax
	andl	%eax, -9(%esi)
.LVL1009:
	.loc 1 739 0
	subl	$5, %esi
.LVL1010:
	movl	%esi, 20(%edi)
.LVL1011:
.LBE3203:
.LBE3202:
.LBE3241:
.LBE4152:
.LBB4153:
.LBB3024:
.LBB2935:
.LBB2834:
	.loc 1 969 0
	addl	$1, %ebp
.LVL1012:
	jmp	.L313
.LVL1013:
.L557:
.LBE2834:
.LBE2935:
.LBE3024:
.LBE4153:
.LBB4154:
.LBB3856:
.LBB3852:
	.loc 1 1057 0
	leal	1(%eax), %edx
	movl	%edx, 20(%edi)
	movzbl	-4(%eax), %edx
	movb	%dl, 1(%eax)
.LVL1014:
.L959:
.LBE3852:
.LBB3853:
	.loc 1 1072 0
	movl	20(%edi), %edx
.LBE3853:
.LBE3856:
.LBE4154:
.LBB4155:
.LBB3025:
.LBB2936:
.LBB2835:
	.loc 1 969 0
	addl	$1, %ebp
.LVL1015:
.LBE2835:
.LBE2936:
.LBE3025:
.LBE4155:
.LBB4156:
.LBB3857:
.LBB3854:
	.loc 1 1072 0
	leal	1(%edx), %ecx
	movl	%ecx, 20(%edi)
	movzbl	-3(%eax), %ecx
	movb	%cl, 1(%edx)
	.loc 1 1073 0
	movl	20(%edi), %edx
	leal	1(%edx), %ecx
	movl	%ecx, 20(%edi)
	movzbl	-2(%eax), %ecx
	movb	%cl, 1(%edx)
	.loc 1 1074 0
	movl	20(%edi), %edx
	leal	1(%edx), %ecx
	movl	%ecx, 20(%edi)
	movzbl	-1(%eax), %ecx
	movb	%cl, 1(%edx)
	.loc 1 1075 0
	movl	20(%edi), %edx
	leal	1(%edx), %ecx
	movl	%ecx, 20(%edi)
	movzbl	(%eax), %eax
	movb	%al, 1(%edx)
	jmp	.L313
.LVL1016:
.L628:
.LBE3854:
.LBE3857:
.LBE4156:
.LBB4157:
.LBB3493:
.LBB3482:
	.loc 1 3016 0
	leal	-4(%eax), %edx
	movl	-4(%eax), %eax
	movl	%eax, 28(%esp)
.LVL1017:
	jmp	.L631
.LVL1018:
.L664:
.LBE3482:
.LBE3493:
.LBE4157:
.LBB4158:
.LBB3539:
.LBB3520:
	.loc 1 2963 0
	leal	-4(%eax), %edx
	movl	-4(%eax), %eax
	movl	%eax, 32(%esp)
.LVL1019:
	jmp	.L667
.LVL1020:
.L475:
.LBE3520:
.LBE3539:
.LBE4158:
.LBB4159:
.LBB3944:
.LBB3941:
.LBB3930:
.LBB3931:
	.loc 1 3270 0
	fldl	-8(%eax)
	fnstcw	70(%esp)
.LVL1021:
	movzwl	70(%esp), %edx
	movb	$12, %dh
	movw	%dx, 68(%esp)
	fldcw	68(%esp)
	fistps	-8(%eax)
	fldcw	70(%esp)
.LVL1022:
.L944:
	.loc 1 3271 0
	subl	$4, %eax
.L943:
	movl	%eax, 20(%edi)
.L476:
.LBE3931:
.LBE3930:
.LBE3941:
	.loc 1 3278 0
	movb	$4, (%eax)
.LBE3944:
.LBE4159:
.LBB4160:
.LBB3026:
.LBB2937:
.LBB2836:
	.loc 1 969 0
	addl	$1, %ebp
.LVL1023:
	jmp	.L313
.LVL1024:
.L493:
.LBE2836:
.LBE2937:
.LBE3026:
.LBE4160:
.LBB4161:
.LBB3968:
.LBB3964:
.LBB3960:
.LBB3956:
	.loc 1 3323 0
	fldl	-8(%eax)
	fnstcw	70(%esp)
.LVL1025:
	movzwl	70(%esp), %edx
	movb	$12, %dh
	movw	%dx, 68(%esp)
	fldcw	68(%esp)
	fistpl	-8(%eax)
	fldcw	70(%esp)
.LVL1026:
.L946:
	.loc 1 3324 0
	subl	$4, %eax
	movl	%eax, 20(%edi)
.LBE3956:
.LBE3960:
.LBE3964:
	.loc 1 3331 0
	movb	$6, (%eax)
	jmp	.L984
.LVL1027:
.L522:
.LBE3968:
.LBE4161:
.LBB4162:
.LBB3702:
.LBB3699:
.LBB3686:
.LBB3687:
	.loc 1 3423 0
	fldl	-8(%ecx)
	fnstcw	70(%esp)
.LVL1028:
	movzwl	70(%esp), %eax
	movb	$12, %ah
	movw	%ax, 68(%esp)
	fldcw	68(%esp)
	fistpq	56(%esp)
	fldcw	70(%esp)
	movl	56(%esp), %eax
	movl	%eax, -8(%ecx)
.LVL1029:
.L521:
.LBE3687:
.LBB3688:
	.loc 1 3412 0
	subl	$4, %ecx
.LVL1030:
.L950:
	movl	%ecx, 20(%edi)
.L523:
.LBE3688:
.LBE3686:
.LBE3699:
	.loc 1 3431 0
	movb	$5, (%ecx)
.LBE3702:
.LBE4162:
.LBB4163:
.LBB3027:
.LBB2938:
.LBB2837:
	.loc 1 969 0
	addl	$1, %ebp
.LVL1031:
	jmp	.L313
.LVL1032:
.L527:
.LBE2837:
.LBE2938:
.LBE3027:
.LBE4163:
.LBB4164:
.LBB4019:
.LBB4014:
.LBB3996:
.LBB3997:
	.loc 1 3498 0
	leal	-4(%eax), %edx
	movl	%edx, 20(%edi)
.LVL1033:
	.loc 1 3499 0
	movsbl	-4(%eax), %edx
.LVL1034:
.L952:
.LBE3997:
.LBB3998:
	.loc 1 3511 0
	movl	%edx, -4(%eax)
	sarl	$31, %edx
	.loc 1 3512 0
	addl	$4, %eax
	.loc 1 3511 0
	movl	%edx, -4(%eax)
.L953:
	.loc 1 3512 0
	movl	%eax, 20(%edi)
.L533:
.LBE3998:
.LBE3996:
.LBE4014:
	.loc 1 3537 0
	movb	$7, (%eax)
.LBE4019:
.LBE4164:
.LBB4165:
.LBB3028:
.LBB2939:
.LBB2838:
	.loc 1 969 0
	addl	$1, %ebp
.LVL1035:
	jmp	.L313
.LVL1036:
.L456:
.LBE2838:
.LBE2939:
.LBE3028:
.LBE4165:
.LBB4166:
.LBB3749:
.LBB3746:
.LBB3744:
.LBB3742:
	.loc 4 524 0
	andl	$16, %ecx
.LVL1037:
	cmpb	$1, %cl
	sbbl	%esi, %esi
	andl	$-4, %esi
	addl	$5, %esi
	cmpb	$1, %cl
	sbbl	%edx, %edx
	notl	%edx
	andl	$4, %edx
.L457:
.LVL1038:
.LBE3742:
.LBE3744:
	.loc 1 822 0
	subl	$4, %esp
	.cfi_def_cfa_offset 148
	pushl	%esi
	.cfi_def_cfa_offset 152
	movl	16(%esp), %eax
	movl	12(%eax), %eax
	subl	%edx, %eax
	addl	20(%edi), %eax
	pushl	%eax
	.cfi_def_cfa_offset 156
	movl	36(%esp), %eax
	addl	$1, %eax
	pushl	%eax
	.cfi_def_cfa_offset 160
	call	memcpy@PLT
.LVL1039:
	.loc 1 823 0
	addl	40(%esp), %esi
.LBE3746:
	addl	$16, %esp
	.cfi_def_cfa_offset 144
.LBB3747:
	movl	%esi, 20(%edi)
.L458:
.LVL1040:
.LBE3747:
.LBE3749:
.LBB3750:
.LBB3751:
	.loc 3 102 0
	subl	$1, 504(%edi)
.LBE3751:
.LBE3750:
.LBE4166:
.LBB4167:
.LBB3029:
.LBB2940:
.LBB2839:
	.loc 1 969 0
	addl	$1, %ebp
.LVL1041:
	jmp	.L313
.LVL1042:
.L976:
.LBE2839:
.LBE2940:
.LBE3029:
.LBE4167:
.LBB4168:
.LBB3540:
.LBB3521:
.LBB3522:
.LBB3523:
	.loc 2 27 0
	leal	.LC0@GOTOFF(%ebx), %edx
	movl	%ecx, 24(%esp)
.LVL1043:
	.loc 2 26 0
	movl	$0, 92(%esp)
	movl	$0, 96(%esp)
.LVL1044:
	movl	$0, 100(%esp)
	.loc 2 27 0
	subl	$12, %esp
	.cfi_def_cfa_offset 156
	pushl	%edx
	.cfi_def_cfa_offset 160
	movl	%edx, 24(%esp)
	call	strlen@PLT
.LVL1045:
	movl	%eax, 116(%esp)
	.loc 2 28 0
	addl	$1, %eax
	movl	%eax, 112(%esp)
	.loc 2 29 0
	movl	%eax, (%esp)
	call	kmalloc@PLT
.LVL1046:
	movl	%eax, 108(%esp)
	.loc 2 30 0
	popl	%ecx
	.cfi_def_cfa_offset 156
	popl	%edx
	.cfi_def_cfa_offset 152
	movl	16(%esp), %edx
	pushl	%edx
	.cfi_def_cfa_offset 156
	pushl	%eax
	.cfi_def_cfa_offset 160
	call	strcpy@PLT
.LVL1047:
.LBE3523:
.LBE3522:
.LBE3521:
	.loc 1 2993 0
	popl	%ecx
	.cfi_def_cfa_offset 156
	leal	.LC44@GOTOFF(%ebx), %eax
	pushl	32(%esp)
	.cfi_def_cfa_offset 160
	pushl	$9
	.cfi_def_cfa_offset 164
	pushl	$2993
	.cfi_def_cfa_offset 168
	pushl	%eax
	.cfi_def_cfa_offset 172
	pushl	%edi
	.cfi_def_cfa_offset 176
	call	_ZN7Runtime9rtThrowExEPKciNS_8RtExTypeEN4kstd6stringE
.LVL1048:
.LBB3524:
.LBB3525:
	.loc 2 43 0
	addl	$20, %esp
	.cfi_def_cfa_offset 156
	pushl	104(%esp)
	.cfi_def_cfa_offset 160
	call	kfree@PLT
.LVL1049:
	movl	20(%edi), %eax
	movl	%eax, 24(%esp)
	addl	$16, %esp
	.cfi_def_cfa_offset 144
	movl	24(%esp), %ecx
	jmp	.L670
.LVL1050:
.L974:
.LBE3525:
.LBE3524:
.LBE3540:
.LBE4168:
.LBB4169:
.LBB3494:
.LBB3483:
.LBB3484:
.LBB3485:
	.loc 2 27 0
	leal	.LC0@GOTOFF(%ebx), %ecx
.LVL1051:
	movb	%dl, 40(%esp)
.LVL1052:
	.loc 2 26 0
	movl	$0, 92(%esp)
	movl	$0, 96(%esp)
.LVL1053:
	movl	$0, 100(%esp)
	.loc 2 27 0
	subl	$12, %esp
	.cfi_def_cfa_offset 156
	pushl	%ecx
	.cfi_def_cfa_offset 160
	movl	%ecx, 40(%esp)
	call	strlen@PLT
.LVL1054:
	movl	%eax, 116(%esp)
	.loc 2 28 0
	addl	$1, %eax
	movl	%eax, 112(%esp)
	.loc 2 29 0
	movl	%eax, (%esp)
	call	kmalloc@PLT
.LVL1055:
	movl	%eax, 108(%esp)
	.loc 2 30 0
	popl	%edx
	.cfi_def_cfa_offset 156
	popl	%ecx
	.cfi_def_cfa_offset 152
	movl	32(%esp), %ecx
	pushl	%ecx
	.cfi_def_cfa_offset 156
	pushl	%eax
	.cfi_def_cfa_offset 160
	call	strcpy@PLT
.LVL1056:
.LBE3485:
.LBE3484:
.LBE3483:
	.loc 1 3040 0
	popl	%esi
	.cfi_def_cfa_offset 156
.LVL1057:
	leal	.LC44@GOTOFF(%ebx), %eax
	pushl	32(%esp)
	.cfi_def_cfa_offset 160
	pushl	$9
	.cfi_def_cfa_offset 164
	pushl	$3040
	.cfi_def_cfa_offset 168
	pushl	%eax
	.cfi_def_cfa_offset 172
	pushl	%edi
	.cfi_def_cfa_offset 176
	call	_ZN7Runtime9rtThrowExEPKciNS_8RtExTypeEN4kstd6stringE
.LVL1058:
.LBB3486:
.LBB3487:
	.loc 2 43 0
	addl	$20, %esp
	.cfi_def_cfa_offset 156
	pushl	104(%esp)
	.cfi_def_cfa_offset 160
	call	kfree@PLT
.LVL1059:
	addl	$16, %esp
	.cfi_def_cfa_offset 144
	movl	20(%edi), %eax
	movzbl	40(%esp), %edx
	jmp	.L634
.LVL1060:
.L978:
.LBE3487:
.LBE3486:
.LBE3494:
.LBE4169:
.LBB4170:
.LBB3752:
.LBB3720:
	.loc 1 801 0
	movl	8(%esp), %esi
.LVL1061:
	.loc 1 800 0
	leal	1(%eax), %ecx
	movl	%ecx, 44(%esp)
.LVL1062:
	.loc 1 801 0
	addl	12(%esi), %eax
.LBB3721:
.LBB3722:
	.loc 3 92 0
	movl	508(%edi), %esi
.LBE3722:
.LBE3721:
	.loc 1 801 0
	movl	%eax, 20(%edi)
.LVL1063:
.LBB3731:
.LBB3729:
	.loc 3 92 0
	movl	504(%edi), %eax
	cmpl	%esi, %eax
	jnb	.L443
	movl	500(%edi), %esi
.LVL1064:
.L444:
	.loc 3 97 0
	leal	1(%eax), %edx
	leal	(%eax,%eax,2), %eax
	movl	44(%esp), %ecx
	movl	%edx, 504(%edi)
	leal	(%esi,%eax,4), %eax
	movl	40(%esp), %edx
	movl	8(%esp), %esi
	movl	%ecx, 4(%eax)
	movl	%edx, 8(%eax)
.LVL1065:
	movl	%esi, (%eax)
.LBE3729:
.LBE3731:
	.loc 1 804 0
	pushl	%ecx
	.cfi_def_cfa_offset 148
	pushl	%edx
	.cfi_def_cfa_offset 152
	pushl	%esi
	.cfi_def_cfa_offset 156
	pushl	%edi
	.cfi_def_cfa_offset 160
	call	_ZN7Runtime12execFunctionEP8FunctionPhS2_
.LVL1066:
	.loc 1 805 0
	movl	12(%esi), %eax
.LBE3720:
	addl	$16, %esp
	.cfi_def_cfa_offset 144
.LBB3733:
	subl	%eax, 20(%edi)
.LVL1067:
.LBE3733:
	jmp	.L448
.LVL1068:
.L455:
.LBE3752:
.LBB3753:
	.loc 1 826 0
	movl	24(%esp), %eax
	movl	%eax, 20(%edi)
	jmp	.L458
.LVL1069:
.L450:
.LBE3753:
.LBB3754:
.LBB3734:
.LBB3719:
.LBB3717:
.LBB3710:
.LBB3711:
.LBB3712:
.LBB3713:
	.loc 3 78 0
	subl	$12, %esp
	.cfi_def_cfa_offset 156
	pushl	%esi
	.cfi_def_cfa_offset 160
	call	get_capacity@PLT
.LVL1070:
	movl	%eax, 508(%edi)
	.loc 3 79 0
	leal	(%esi,%esi,2), %eax
	sall	$2, %eax
	movl	%eax, (%esp)
	call	kmalloc@PLT
.LVL1071:
.LBB3714:
	.loc 3 81 0
	movl	504(%edi), %edx
	addl	$16, %esp
	.cfi_def_cfa_offset 144
.LBE3714:
	.loc 3 79 0
	movl	%eax, %esi
.LVL1072:
	movl	500(%edi), %eax
.LVL1073:
.LBB3715:
	.loc 3 81 0
	testl	%edx, %edx
	je	.L453
	leal	(%edx,%edx,2), %edx
	movl	%ebp, 44(%esp)
	movl	%edi, 144(%esp)
	leal	(%eax,%edx,4), %ecx
	movl	%eax, %edx
	movl	%ecx, %ebp
.LVL1074:
	.p2align 4,,10
	.p2align 3
.L454:
	.loc 3 83 0
	movl	(%edx), %edi
	movl	%edx, %ecx
	addl	$12, %edx
	subl	%eax, %ecx
	movl	%edi, (%esi,%ecx)
	movl	-8(%edx), %edi
	movl	%edi, 4(%esi,%ecx)
	movl	-4(%edx), %edi
	.loc 3 81 0
	cmpl	%ebp, %edx
	.loc 3 83 0
	movl	%edi, 8(%esi,%ecx)
	.loc 3 81 0
	jne	.L454
	movl	44(%esp), %ebp
	movl	144(%esp), %edi
.LVL1075:
.L453:
.LBE3715:
	.loc 3 86 0
	subl	$12, %esp
	.cfi_def_cfa_offset 156
	pushl	%eax
	.cfi_def_cfa_offset 160
	call	kfree@PLT
.LVL1076:
	.loc 3 87 0
	movl	%esi, 500(%edi)
	movl	504(%edi), %eax
	addl	$16, %esp
	.cfi_def_cfa_offset 144
	jmp	.L451
.LVL1077:
.L716:
.LBE3713:
.LBE3712:
.LBE3711:
.LBE3710:
.LBE3717:
.LBE3719:
.LBE3734:
.LBE3754:
.LBE4170:
.LBB4171:
.LBB3788:
.LBB3773:
.LBB3774:
	.loc 1 1840 0
	movl	-13(%ecx), %eax
	movl	-4(%ecx), %esi
	.loc 1 1841 0
	subl	$9, %ecx
.LVL1078:
	.loc 1 1840 0
	imull	1(%ecx), %eax
	imull	-8(%ecx), %esi
	.loc 1 1842 0
	addl	$1, %ebp
.LVL1079:
	.loc 1 1840 0
	addl	%eax, %esi
	movl	1(%ecx), %eax
	mull	-8(%ecx)
	addl	%esi, %edx
	movl	%eax, -8(%ecx)
.LVL1080:
	movl	%edx, -4(%ecx)
	.loc 1 1841 0
	movl	%ecx, 20(%edi)
.LVL1081:
	.loc 1 1843 0
	jmp	.L313
.LVL1082:
.L712:
.LBE3774:
.LBB3775:
	.loc 1 1857 0
	leal	-4(%ecx), %eax
	.loc 1 1862 0
	addl	$1, %ebp
.LVL1083:
	.loc 1 1857 0
	movl	%eax, 20(%edi)
.LVL1084:
	movzbl	-4(%ecx), %edx
.LVL1085:
	.loc 1 1858 0
	leal	-9(%ecx), %eax
	movl	%eax, 20(%edi)
.LVL1086:
	.loc 1 1860 0
	movl	%edx, %eax
.LVL1087:
	mulb	-9(%ecx)
	movb	%al, -9(%ecx)
.LVL1088:
	.loc 1 1861 0
	addl	$4, 20(%edi)
	.loc 1 1863 0
	jmp	.L313
.LVL1089:
.L715:
.LBE3775:
.LBB3776:
	.loc 1 1890 0
	movl	-9(%ecx), %eax
	.loc 1 1891 0
	subl	$5, %ecx
.LVL1090:
	.loc 1 1892 0
	addl	$1, %ebp
.LVL1091:
	.loc 1 1890 0
	imull	1(%ecx), %eax
.LVL1092:
	movl	%eax, -4(%ecx)
.LVL1093:
	.loc 1 1891 0
	movl	%ecx, 20(%edi)
.LVL1094:
	.loc 1 1893 0
	jmp	.L313
.LVL1095:
.L510:
.LBE3776:
.LBE3773:
.LBE3788:
.LBE4171:
.LBB4172:
.LBB3878:
.LBB3874:
.LBB3870:
.LBB3863:
	.loc 1 3210 0
	subl	$8, %eax
.LVL1096:
	.loc 1 3212 0
	addl	$4, %eax
	movl	%eax, 20(%edi)
.LVL1097:
	jmp	.L513
.LVL1098:
.L429:
.LBE3863:
.LBE3870:
.LBE3874:
.LBE3878:
.LBE4172:
.LBB4173:
.LBB3837:
.LBB3822:
.LBB3823:
	.loc 1 601 0
	movl	-8(%ecx), %eax
	addl	%eax, -17(%ecx)
.LVL1099:
	movl	-4(%ecx), %edx
	adcl	%edx, -13(%ecx)
	.loc 1 602 0
	subl	$9, %ecx
.LVL1100:
	movl	%ecx, 20(%edi)
.LVL1101:
.LBE3823:
.LBE3822:
.LBE3837:
.LBE4173:
.LBB4174:
.LBB3030:
.LBB2941:
.LBB2840:
	.loc 1 969 0
	addl	$1, %ebp
.LVL1102:
	jmp	.L313
.LVL1103:
.L427:
.LBE2840:
.LBE2941:
.LBE3030:
.LBE4174:
.LBB4175:
.LBB3838:
.LBB3834:
.LBB3824:
	.loc 1 646 0
	movl	-4(%ecx), %eax
	addl	%eax, -9(%ecx)
.LVL1104:
	.loc 1 647 0
	subl	$5, %ecx
.LVL1105:
	movl	%ecx, 20(%edi)
.LVL1106:
.LBE3824:
.LBE3834:
.LBE3838:
.LBE4175:
.LBB4176:
.LBB3031:
.LBB2942:
.LBB2841:
	.loc 1 969 0
	addl	$1, %ebp
.LVL1107:
	jmp	.L313
.LVL1108:
.L610:
.LBE2841:
.LBE2942:
.LBE3031:
.LBE4176:
	.loc 1 1380 0
	addl	$1, -4(%eax)
	.loc 1 1381 0
	addl	$1, %ebp
.LVL1109:
	.loc 1 1382 0
	jmp	.L313
.L543:
	.loc 1 933 0
	addl	$-1, -8(%eax)
	adcl	$-1, -4(%eax)
	.loc 1 934 0
	addl	$1, %ebp
.LVL1110:
	.loc 1 935 0
	jmp	.L313
.L542:
	.loc 1 921 0
	subl	$1, -4(%eax)
	.loc 1 922 0
	addl	$1, %ebp
.LVL1111:
	.loc 1 923 0
	jmp	.L313
.L607:
	.loc 1 1365 0
	addb	$1, -4(%eax)
	.loc 1 1366 0
	addl	$1, %ebp
.LVL1112:
	.loc 1 1367 0
	jmp	.L313
.L611:
	.loc 1 1390 0
	addl	$1, -8(%eax)
	adcl	$0, -4(%eax)
	.loc 1 1391 0
	addl	$1, %ebp
.LVL1113:
	.loc 1 1392 0
	jmp	.L313
.LVL1114:
.L438:
.LBB4177:
.LBB3242:
.LBB3237:
.LBB3204:
	.loc 1 684 0
	movl	-8(%esi), %eax
	andl	%eax, -17(%esi)
.LVL1115:
.LBE3204:
.LBE3237:
.LBE3242:
.LBE4177:
.LBB4178:
.LBB3032:
.LBB2943:
.LBB2842:
	.loc 1 969 0
	addl	$1, %ebp
.LVL1116:
.LBE2842:
.LBE2943:
.LBE3032:
.LBE4178:
.LBB4179:
.LBB3243:
.LBB3238:
.LBB3205:
	.loc 1 684 0
	movl	-4(%esi), %eax
	andl	%eax, -13(%esi)
	.loc 1 685 0
	subl	$9, %esi
.LVL1117:
	movl	%esi, 20(%edi)
.LVL1118:
	jmp	.L313
.LVL1119:
.L539:
.LBE3205:
.LBE3238:
.LBE3243:
.LBE4179:
	.loc 1 903 0
	subb	$1, -4(%eax)
	.loc 1 904 0
	addl	$1, %ebp
.LVL1120:
	.loc 1 905 0
	jmp	.L313
.LVL1121:
.L913:
.LBB4180:
.LBB3541:
.LBB3526:
.LBB3515:
	.loc 4 498 0
	movl	$8, %edx
.LVL1122:
.L674:
.LBE3515:
.LBE3526:
	.loc 1 2999 0
	subl	$4, %esp
	.cfi_def_cfa_offset 148
	pushl	%edx
	.cfi_def_cfa_offset 152
	imull	40(%esp), %edx
	leal	5(%ecx,%edx), %edx
	pushl	%edx
	.cfi_def_cfa_offset 156
	pushl	20(%esp)
	.cfi_def_cfa_offset 160
	call	memcpy@PLT
.LVL1123:
	movl	%esi, %eax
	addl	$16, %esp
	.cfi_def_cfa_offset 144
	cmpb	$13, %al
	jbe	.L676
.L678:
.LBB3527:
.LBB3528:
	.loc 4 527 0
	xorl	%eax, %eax
	.loc 4 524 0
	testl	$16, %esi
	jne	.L677
.LVL1124:
.L675:
.LBE3528:
.LBE3527:
	.loc 1 3000 0
	addl	20(%edi), %eax
	movl	%esi, %ecx
.LBE3541:
.LBE4180:
.LBB4181:
.LBB3033:
.LBB2944:
.LBB2843:
	.loc 1 969 0
	addl	$1, %ebp
.LVL1125:
.LBE2843:
.LBE2944:
.LBE3033:
.LBE4181:
.LBB4182:
.LBB3542:
	.loc 1 3000 0
	movl	%eax, 20(%edi)
	movb	%cl, (%eax)
	jmp	.L313
.LVL1126:
.L912:
.LBB3532:
.LBB3516:
	.loc 4 494 0
	movl	$4, %edx
.L673:
.LVL1127:
.LBE3516:
.LBE3532:
	.loc 1 2996 0
	movl	%esi, %eax
	cmpb	$3, %al
	jne	.L674
.LVL1128:
	.loc 1 2997 0
	subl	$4, %esp
	.cfi_def_cfa_offset 148
	pushl	$1
	.cfi_def_cfa_offset 152
	movl	40(%esp), %eax
.LVL1129:
	leal	5(%ecx,%eax), %edx
	pushl	%edx
	.cfi_def_cfa_offset 156
	pushl	20(%esp)
	.cfi_def_cfa_offset 160
	call	memcpy@PLT
.LVL1130:
	addl	$16, %esp
	.cfi_def_cfa_offset 144
.LBB3533:
.LBB3529:
	.loc 4 518 0
	movl	$4, %eax
	jmp	.L675
.LVL1131:
.L865:
.LBE3529:
.LBE3533:
.LBE3542:
.LBE4182:
.LBB4183:
.LBB3495:
.LBB3488:
.LBB3477:
	.loc 4 487 0
	movl	$2, %ecx
.LVL1132:
.L639:
.LBE3477:
.LBE3488:
	.loc 1 3047 0
	imull	28(%esp), %ecx
	movl	8(%esp), %esi
	leal	5(%esi,%ecx), %ecx
	movl	%ecx, (%eax)
.L641:
	.loc 1 3048 0
	leal	4(%eax), %ecx
	orl	$16, %edx
.LBE3495:
.LBE4183:
.LBB4184:
.LBB3034:
.LBB2945:
.LBB2844:
	.loc 1 969 0
	addl	$1, %ebp
.LVL1133:
.LBE2844:
.LBE2945:
.LBE3034:
.LBE4184:
.LBB4185:
.LBB3496:
	.loc 1 3048 0
	movl	%ecx, 20(%edi)
	movb	%dl, 4(%eax)
	jmp	.L313
.LVL1134:
.L889:
.LBE3496:
.LBE4185:
.LBB4186:
.LBB3567:
.LBB3561:
.LBB3557:
	.loc 4 498 0
	movl	$8, 8(%esp)
.L799:
.LVL1135:
	cmpb	$13, %cl
	jbe	.L798
.L802:
.LBE3557:
.LBE3561:
.LBB3562:
.LBB3563:
	.loc 4 524 0
	movl	%ecx, %eax
	sall	$27, %eax
	sarl	$31, %eax
	andl	$-4, %eax
.LVL1136:
.L800:
.LBE3563:
.LBE3562:
	.loc 1 3078 0
	addl	%edx, %eax
	movl	%eax, 20(%edi)
.LVL1137:
	.loc 1 3080 0
	movzbl	-1(%eax), %ecx
.LVL1138:
	.loc 1 3085 0
	leal	-5(%eax), %edx
.LVL1139:
	movl	%edx, 20(%edi)
	movl	-5(%eax), %edx
.LVL1140:
	.loc 1 3089 0
	cmpb	$19, %cl
	je	.L985
	.loc 1 3092 0
	subl	$4, %esp
	.cfi_def_cfa_offset 148
	pushl	12(%esp)
	.cfi_def_cfa_offset 152
	pushl	%eax
	.cfi_def_cfa_offset 156
	pushl	%edx
	.cfi_def_cfa_offset 160
	call	memcpy@PLT
.LVL1141:
	addl	$16, %esp
	.cfi_def_cfa_offset 144
.L804:
	.loc 1 3093 0
	subl	$1, 20(%edi)
.LBE3567:
.LBE4186:
.LBB4187:
.LBB3035:
.LBB2946:
.LBB2845:
	.loc 1 969 0
	addl	$1, %ebp
.LVL1142:
	jmp	.L313
.LVL1143:
.L886:
.LBE2845:
.LBE2946:
.LBE3035:
.LBE4187:
.LBB4188:
.LBB3061:
.LBB3058:
	.loc 4 487 0
	movl	$2, %ecx
.LVL1144:
.L792:
.LBE3058:
.LBE3061:
	.loc 1 2454 0
	movl	%ecx, (%eax)
	.loc 1 2455 0
	leal	4(%eax), %ecx
	.loc 1 2443 0
	movl	%edx, %ebp
.LBE4188:
.LBB4189:
.LBB3036:
.LBB2947:
.LBB2846:
	.loc 1 969 0
	addl	$1, %ebp
.LVL1145:
.LBE2846:
.LBE2947:
.LBE3036:
.LBE4189:
.LBB4190:
	.loc 1 2455 0
	movl	%ecx, 20(%edi)
	movb	$6, 4(%eax)
.LVL1146:
	jmp	.L313
.LVL1147:
.L906:
.LBE4190:
.LBB4191:
.LBB3607:
.LBB3580:
.LBB3576:
	.loc 4 487 0
	movl	$2, 8(%esp)
.LVL1148:
.L821:
	movl	$1, %edx
	.loc 4 503 0
	movl	$-4, %esi
	sall	%cl, %edx
	testl	$14972, %edx
	jne	.L823
	andl	$1408, %edx
	movl	$-8, %esi
	jne	.L823
.L825:
.LBE3576:
.LBE3580:
.LBB3581:
.LBB3582:
	.loc 4 524 0
	movl	%ecx, %esi
	sall	$27, %esi
	sarl	$31, %esi
	andl	$-4, %esi
.LVL1149:
.L823:
.LBE3582:
.LBE3581:
	.loc 1 3130 0
	addl	%eax, %esi
	.loc 1 3133 0
	movzbl	-1(%esi), %ecx
.LVL1150:
	.loc 1 3130 0
	movl	%esi, 20(%edi)
.LVL1151:
	cmpb	$8, %cl
	ja	.L826
	movl	$1, %eax
.LVL1152:
	sall	%cl, %eax
	testb	$80, %al
	jne	.L827
	testb	$36, %al
	jne	.L827
	testl	$384, %eax
	je	.L826
.LBB3583:
.LBB3584:
	.loc 1 3149 0
	cmpl	$0, -5(%esi)
	.loc 1 3148 0
	movl	-9(%esi), %edx
	leal	-9(%esi), %eax
	movl	%eax, 20(%edi)
.LVL1153:
	movl	%edx, 24(%esp)
	.loc 1 3149 0
	je	.L986
.L918:
.LBB3585:
.LBB3586:
.LBB3587:
	.loc 2 27 0
	leal	.LC0@GOTOFF(%ebx), %edx
	movb	%cl, 40(%esp)
.LVL1154:
	.loc 2 26 0
	movl	$0, 92(%esp)
	movl	$0, 96(%esp)
	movl	$0, 100(%esp)
	.loc 2 27 0
	subl	$12, %esp
	.cfi_def_cfa_offset 156
	pushl	%edx
	.cfi_def_cfa_offset 160
	movl	%edx, 52(%esp)
	call	strlen@PLT
.LVL1155:
	movl	%eax, 116(%esp)
	.loc 2 28 0
	addl	$1, %eax
	movl	%eax, 112(%esp)
	.loc 2 29 0
	movl	%eax, (%esp)
	call	kmalloc@PLT
.LVL1156:
	movl	%eax, 108(%esp)
	.loc 2 30 0
	popl	%edx
	.cfi_def_cfa_offset 156
	popl	%ecx
	.cfi_def_cfa_offset 152
	movl	44(%esp), %edx
	pushl	%edx
	.cfi_def_cfa_offset 156
	pushl	%eax
	.cfi_def_cfa_offset 160
	call	strcpy@PLT
.LVL1157:
.LBE3587:
.LBE3586:
.LBE3585:
	.loc 1 3150 0
	popl	%eax
	.cfi_def_cfa_offset 156
	leal	.LC44@GOTOFF(%ebx), %eax
	pushl	32(%esp)
	.cfi_def_cfa_offset 160
	pushl	$9
	.cfi_def_cfa_offset 164
	pushl	$3150
	.cfi_def_cfa_offset 168
	pushl	%eax
	.cfi_def_cfa_offset 172
	pushl	%edi
	.cfi_def_cfa_offset 176
	call	_ZN7Runtime9rtThrowExEPKciNS_8RtExTypeEN4kstd6stringE
.LVL1158:
.LBB3588:
.LBB3589:
	.loc 2 43 0
	addl	$20, %esp
	.cfi_def_cfa_offset 156
	pushl	104(%esp)
	.cfi_def_cfa_offset 160
	call	kfree@PLT
.LVL1159:
	addl	$16, %esp
	.cfi_def_cfa_offset 144
	movzbl	40(%esp), %ecx
	movl	20(%edi), %eax
.LVL1160:
.L831:
.LBE3589:
.LBE3588:
	.loc 1 3151 0
	movl	24(%esp), %edx
	movl	%edx, 36(%esp)
.LVL1161:
	jmp	.L830
.LVL1162:
.L907:
.LBE3584:
.LBE3583:
.LBB3596:
.LBB3577:
	.loc 4 498 0
	movl	$8, 8(%esp)
.L822:
.LVL1163:
	cmpb	$13, %cl
	ja	.L825
	jmp	.L821
.LVL1164:
.L888:
.LBE3577:
.LBE3596:
.LBE3607:
.LBE4191:
.LBB4192:
.LBB3568:
.LBB3564:
.LBB3558:
	.loc 4 487 0
	movl	$2, 8(%esp)
.LVL1165:
.L798:
	movl	$1, %esi
	.loc 4 503 0
	movl	$-4, %eax
	sall	%cl, %esi
	testl	$14972, %esi
	jne	.L800
	andl	$1408, %esi
	movl	$-8, %eax
	jne	.L800
	jmp	.L802
.LVL1166:
.L864:
.LBE3558:
.LBE3564:
.LBE3568:
.LBE4192:
.LBB4193:
.LBB3497:
.LBB3489:
.LBB3478:
	.loc 4 494 0
	movl	$4, %ecx
.L638:
.LVL1167:
.LBE3478:
.LBE3489:
	.loc 1 3043 0
	cmpb	$3, %dl
	jne	.L639
	.loc 1 3044 0
	movl	28(%esp), %esi
	movl	8(%esp), %ecx
	leal	5(%ecx,%esi), %ecx
	movl	%ecx, (%eax)
	jmp	.L641
.LVL1168:
.L636:
.LBB3490:
.LBB3479:
	.loc 4 485 0
	movl	$1, %ecx
	jmp	.L638
.L640:
	.loc 4 498 0
	movl	$8, %ecx
	jmp	.L639
.LVL1169:
.L859:
.LBE3479:
.LBE3490:
.LBE3497:
.LBE4193:
.LBB4194:
.LBB3543:
.LBB3534:
.LBB3517:
	.loc 4 485 0
	movl	$1, %edx
	jmp	.L673
.LVL1170:
.L818:
.LBE3517:
.LBE3534:
.LBE3543:
.LBE4194:
.LBB4195:
.LBB3608:
.LBB3597:
.LBB3578:
	movl	$1, 8(%esp)
	jmp	.L822
.L820:
	.loc 4 494 0
	movl	$4, 8(%esp)
	jmp	.L822
.LVL1171:
.L795:
.LBE3578:
.LBE3597:
.LBE3608:
.LBE4195:
.LBB4196:
.LBB3569:
.LBB3565:
.LBB3559:
	.loc 4 485 0
	movl	$1, 8(%esp)
	jmp	.L799
.L797:
	.loc 4 494 0
	movl	$4, 8(%esp)
	jmp	.L799
.LVL1172:
.L789:
.LBE3559:
.LBE3565:
.LBE3569:
.LBE4196:
.LBB4197:
.LBB3062:
.LBB3059:
	.loc 4 485 0
	movl	$1, %ecx
.LVL1173:
	jmp	.L792
.LVL1174:
.L793:
	.loc 4 498 0
	movl	$8, %ecx
.LVL1175:
	jmp	.L792
.LVL1176:
.L791:
	.loc 4 494 0
	movl	$4, %ecx
.LVL1177:
	jmp	.L792
.LVL1178:
.L647:
.LBE3059:
.LBE3062:
.LBE4197:
.LBB4198:
.LBB2769:
	.loc 1 3060 0
	cmpb	$19, 8(%esp)
.LBB2765:
.LBB2758:
	.loc 4 498 0
	movl	$8, %esi
.LVL1179:
.LBE2758:
.LBE2765:
	.loc 1 3060 0
	jne	.L648
.L971:
	.loc 1 3062 0
	movl	24(%esp), %esi
.LBE2769:
.LBE4198:
.LBB4199:
.LBB3037:
.LBB2948:
.LBB2847:
	.loc 1 969 0
	addl	$1, %ebp
.LVL1180:
.LBE2847:
.LBE2948:
.LBE3037:
.LBE4199:
.LBB4200:
.LBB2770:
	.loc 1 3062 0
	movzbl	(%esi), %edx
	movb	%dl, -4(%eax)
	.loc 1 3063 0
	movl	20(%edi), %eax
	leal	4(%eax), %edx
	movl	%edx, 20(%edi)
	movb	$3, 4(%eax)
	jmp	.L313
.LVL1181:
.L858:
.LBE2770:
.LBE4200:
.LBB4201:
.LBB3544:
	.loc 1 2999 0
	subl	$4, %esp
	.cfi_def_cfa_offset 148
	pushl	$2
	.cfi_def_cfa_offset 152
	movl	40(%esp), %eax
	leal	5(%ecx,%eax,2), %edx
	pushl	%edx
	.cfi_def_cfa_offset 156
	pushl	20(%esp)
	.cfi_def_cfa_offset 160
	call	memcpy@PLT
.LVL1182:
	addl	$16, %esp
	.cfi_def_cfa_offset 144
.LVL1183:
.L677:
.LBB3535:
.LBB3530:
	.loc 4 525 0
	movl	$4, %eax
	jmp	.L675
.LVL1184:
.L643:
.LBE3530:
.LBE3535:
.LBE3544:
.LBE4201:
.LBB4202:
.LBB2771:
.LBB2766:
.LBB2759:
	.loc 4 485 0
	movl	$1, %esi
	jmp	.L646
.L645:
	.loc 4 494 0
	movl	$4, %esi
	jmp	.L646
.LVL1185:
.L861:
.LBE2759:
.LBE2766:
.LBE2771:
.LBE4202:
.LBB4203:
.LBB3755:
	.loc 1 819 0
	movl	$5, %esi
.LBB3748:
.LBB3745:
.LBB3743:
	.loc 4 518 0
	movl	$4, %edx
	jmp	.L457
.LVL1186:
.L464:
.LBE3743:
.LBE3745:
.LBE3748:
.LBE3755:
.LBE4203:
.LBB4204:
.LBB4070:
.LBB4064:
.LBB4055:
	.loc 1 851 0
	fildq	-8(%eax)
	fstpl	-8(%eax)
.LVL1187:
	.loc 1 852 0
	movl	%eax, 20(%edi)
.LBE4055:
.LBE4064:
.LBE4070:
	.loc 1 867 0
	movb	$10, (%eax)
	jmp	.L987
.L723:
.LBE4204:
	.loc 1 1940 0
	negl	-8(%eax)
	adcl	$0, -4(%eax)
.LBB4205:
.LBB3038:
.LBB2949:
.LBB2848:
	.loc 1 969 0
	addl	$1, %ebp
.LVL1188:
.LBE2848:
.LBE2949:
.LBE3038:
.LBE4205:
	.loc 1 1940 0
	negl	-4(%eax)
	jmp	.L313
.L724:
	.loc 1 1948 0
	fldl	-8(%eax)
.LBB4206:
.LBB3039:
.LBB2950:
.LBB2849:
	.loc 1 969 0
	addl	$1, %ebp
.LVL1189:
.LBE2849:
.LBE2950:
.LBE3039:
.LBE4206:
	.loc 1 1948 0
	fchs
	fstpl	-8(%eax)
	jmp	.L313
.L460:
.LVL1190:
.LBB4207:
.LBB4071:
.LBB4065:
.LBB4056:
	.loc 1 838 0
	movl	-4(%eax), %edx
	xorl	%ecx, %ecx
	.loc 1 839 0
	addl	$4, %eax
.LVL1191:
	.loc 1 838 0
	movl	%ecx, 12(%esp)
	movl	%edx, 8(%esp)
	fildq	8(%esp)
	fstpl	-8(%eax)
	.loc 1 839 0
	movl	%eax, 20(%edi)
.LBE4056:
.LBE4065:
.LBE4071:
	.loc 1 867 0
	movb	$10, (%eax)
	jmp	.L987
.LVL1192:
.L462:
.LBB4072:
.LBB4066:
.LBB4057:
	.loc 1 845 0
	fildl	-4(%eax)
	.loc 1 846 0
	addl	$4, %eax
.LVL1193:
	.loc 1 845 0
	fstpl	-8(%eax)
.LVL1194:
	.loc 1 846 0
	movl	%eax, 20(%edi)
.LBE4057:
.LBE4066:
.LBE4072:
	.loc 1 867 0
	movb	$10, (%eax)
	jmp	.L987
.LVL1195:
.L732:
.LBE4207:
.LBB4208:
.LBB3143:
.LBB3122:
.LBB3123:
	.loc 1 2030 0
	movl	-9(%esi), %ecx
	xorl	%edx, %edx
	cmpl	%ecx, -4(%esi)
	.loc 1 2028 0
	leal	-9(%esi), %eax
.LVL1196:
	.loc 1 2030 0
	setne	%dl
	movl	%edx, -9(%esi)
.LVL1197:
	.p2align 4,,10
	.p2align 3
.L738:
.LBE3123:
.LBE3122:
.LBE3143:
	.loc 1 2051 0
	leal	4(%eax), %edx
.LBE4208:
.LBB4209:
.LBB3040:
.LBB2951:
.LBB2850:
	.loc 1 969 0
	addl	$1, %ebp
.LVL1198:
.LBE2850:
.LBE2951:
.LBE3040:
.LBE4209:
.LBB4210:
	.loc 1 2051 0
	movl	%edx, 20(%edi)
	movb	$9, 4(%eax)
	jmp	.L313
.LVL1199:
.L733:
.LBB3144:
.LBB3138:
.LBB3124:
	.loc 1 1998 0
	movl	-8(%esi), %ecx
	movl	-4(%esi), %edx
	.loc 1 1996 0
	leal	-17(%esi), %eax
.LVL1200:
	.loc 1 1998 0
	xorl	-17(%esi), %ecx
	xorl	-13(%esi), %edx
	orl	%edx, %ecx
	setne	%dl
	movzbl	%dl, %edx
	movl	%edx, -17(%esi)
.LVL1201:
.LBE3124:
	.loc 1 2000 0
	jmp	.L738
.LVL1202:
.L564:
.LBE3138:
.LBE3144:
.LBE4210:
.LBB4211:
.LBB3171:
.LBB3151:
.LBB3152:
	.loc 1 1097 0
	leal	-4(%esi), %eax
	movl	%eax, 20(%edi)
.LVL1203:
	.loc 1 1098 0
	leal	-9(%esi), %eax
	.loc 1 1097 0
	movzbl	-4(%esi), %edx
.LVL1204:
	.loc 1 1098 0
	movl	%eax, 20(%edi)
.LVL1205:
	.loc 1 1100 0
	cmpb	%dl, -9(%esi)
	sete	%dl
.LVL1206:
	movzbl	%dl, %edx
	movl	%edx, -9(%esi)
.LVL1207:
	.p2align 4,,10
	.p2align 3
.L573:
.LBE3152:
.LBE3151:
.LBE3171:
	.loc 1 1179 0
	leal	4(%eax), %edx
.LBE4211:
.LBB4212:
.LBB3041:
.LBB2952:
.LBB2851:
	.loc 1 969 0
	addl	$1, %ebp
.LVL1208:
.LBE2851:
.LBE2952:
.LBE3041:
.LBE4212:
.LBB4213:
	.loc 1 1179 0
	movl	%edx, 20(%edi)
	.loc 1 1180 0
	movb	$9, 4(%eax)
	jmp	.L313
.LVL1209:
.L567:
.LBB3172:
.LBB3167:
.LBB3153:
	.loc 1 1156 0
	movl	-9(%esi), %ecx
	xorl	%edx, %edx
	cmpl	%ecx, -4(%esi)
	.loc 1 1154 0
	leal	-9(%esi), %eax
.LVL1210:
	.loc 1 1156 0
	sete	%dl
	movl	%edx, -9(%esi)
.LBE3153:
	.loc 1 1158 0
	jmp	.L573
.LVL1211:
.L568:
.LBB3154:
	.loc 1 1124 0
	movl	-8(%esi), %ecx
	movl	-4(%esi), %edx
	.loc 1 1122 0
	leal	-17(%esi), %eax
.LVL1212:
	.loc 1 1124 0
	xorl	-17(%esi), %ecx
	xorl	-13(%esi), %edx
	orl	%edx, %ecx
	sete	%dl
	movzbl	%dl, %edx
	movl	%edx, -17(%esi)
.LVL1213:
.LBE3154:
	.loc 1 1126 0
	jmp	.L573
.LVL1214:
.L719:
.LBE3167:
.LBE3172:
.LBE4213:
	.loc 1 1931 0
	negl	-4(%eax)
.LBB4214:
.LBB3042:
.LBB2953:
.LBB2852:
	.loc 1 969 0
	addl	$1, %ebp
.LVL1215:
	jmp	.L313
.L721:
.LBE2852:
.LBE2953:
.LBE3042:
.LBE4214:
	.loc 1 1936 0
	negl	-4(%eax)
.LBB4215:
.LBB3043:
.LBB2954:
.LBB2853:
	.loc 1 969 0
	addl	$1, %ebp
.LVL1216:
	jmp	.L313
.L722:
.LBE2853:
.LBE2954:
.LBE3043:
.LBE4215:
	.loc 1 1944 0
	negl	-8(%eax)
	adcl	$0, -4(%eax)
.LBB4216:
.LBB3044:
.LBB2955:
.LBB2854:
	.loc 1 969 0
	addl	$1, %ebp
.LVL1217:
.LBE2854:
.LBE2955:
.LBE3044:
.LBE4216:
	.loc 1 1944 0
	negl	-4(%eax)
	jmp	.L313
.LVL1218:
.L729:
.LBB4217:
.LBB3145:
.LBB3139:
.LBB3125:
	.loc 1 1971 0
	leal	-4(%esi), %eax
	movl	%eax, 20(%edi)
.LVL1219:
	.loc 1 1972 0
	leal	-9(%esi), %eax
	.loc 1 1971 0
	movzbl	-4(%esi), %edx
.LVL1220:
	.loc 1 1972 0
	movl	%eax, 20(%edi)
.LVL1221:
	.loc 1 1974 0
	cmpb	%dl, -9(%esi)
	setne	%dl
.LVL1222:
	movzbl	%dl, %edx
	movl	%edx, -9(%esi)
.LVL1223:
.LBE3125:
	.loc 1 1976 0
	jmp	.L738
.LVL1224:
.L502:
.LBE3139:
.LBE3145:
.LBE4217:
.LBB4218:
.LBB4047:
.LBB4043:
.LBB4027:
.LBB4028:
	.loc 1 3476 0
	fldl	-8(%eax)
	fnstcw	70(%esp)
.LVL1225:
	movzwl	70(%esp), %edx
	movb	$12, %dh
	movw	%dx, 68(%esp)
	fldcw	68(%esp)
	fistpq	-8(%eax)
	fldcw	70(%esp)
.LVL1226:
.L948:
	.loc 1 3477 0
	movl	%eax, 20(%edi)
.L503:
.LBE4028:
.LBE4027:
.LBE4043:
	.loc 1 3484 0
	movb	$8, (%eax)
.LBE4047:
.LBE4218:
.LBB4219:
.LBB3045:
.LBB2956:
.LBB2855:
	.loc 1 969 0
	addl	$1, %ebp
.LVL1227:
	jmp	.L313
.LVL1228:
.L512:
.LBE2855:
.LBE2956:
.LBE3045:
.LBE4219:
.LBB4220:
.LBB3879:
.LBB3875:
.LBB3871:
.LBB3864:
	.loc 1 3216 0
	leal	-8(%eax), %edx
	.loc 1 3217 0
	fldl	-8(%eax)
	.loc 1 3216 0
	movl	%edx, 20(%edi)
.LVL1229:
	.loc 1 3217 0
	fnstcw	70(%esp)
.LVL1230:
	movzwl	70(%esp), %edx
	movb	$12, %dh
	movw	%dx, 68(%esp)
	fldcw	68(%esp)
	fistps	66(%esp)
	fldcw	70(%esp)
	movzwl	66(%esp), %edx
	movb	%dl, -8(%eax)
	.loc 1 3218 0
	movl	20(%edi), %eax
	addl	$4, %eax
.L949:
	movl	%eax, 20(%edi)
	jmp	.L513
.LVL1231:
.L499:
.LBE3864:
.LBE3871:
.LBE3875:
.LBE3879:
.LBE4220:
.LBB4221:
.LBB4048:
.LBB4044:
.LBB4040:
.LBB4029:
	.loc 1 3452 0
	movl	-4(%eax), %esi
	movl	$0, (%eax)
	.loc 1 3453 0
	addl	$4, %eax
.LVL1232:
	.loc 1 3452 0
	movl	%esi, -8(%eax)
	.loc 1 3453 0
	movl	%eax, 20(%edi)
	jmp	.L503
.LVL1233:
.L500:
.LBE4029:
.LBB4030:
	.loc 1 3464 0
	movl	-4(%eax), %edx
.LVL1234:
.L947:
.LBE4030:
.LBB4031:
	.loc 1 3458 0
	movl	%edx, -4(%eax)
	sarl	$31, %edx
	.loc 1 3459 0
	addl	$4, %eax
	.loc 1 3458 0
	movl	%edx, -4(%eax)
	.loc 1 3459 0
	movl	%eax, 20(%edi)
	jmp	.L503
.LVL1235:
.L530:
.LBE4031:
.LBE4040:
.LBE4044:
.LBE4048:
.LBE4221:
.LBB4222:
.LBB4020:
.LBB4015:
.LBB4010:
.LBB3999:
	.loc 1 3517 0
	movl	-4(%eax), %edx
	jmp	.L952
.LVL1236:
.L525:
.LBE3999:
.LBB4000:
	.loc 1 3492 0
	leal	-4(%eax), %edx
	.loc 1 3494 0
	addl	$4, %eax
	.loc 1 3492 0
	movl	%edx, 20(%edi)
	.loc 1 3493 0
	movzbl	-8(%eax), %edx
	movl	$0, -4(%eax)
	movl	%edx, -8(%eax)
	.loc 1 3494 0
	movl	%eax, 20(%edi)
	jmp	.L533
.LVL1237:
.L713:
.LBE4000:
.LBE4010:
.LBE4015:
.LBE4020:
.LBE4222:
.LBB4223:
.LBB3789:
.LBB3786:
.LBB3777:
	.loc 1 1870 0
	movzwl	-9(%ecx), %eax
	.loc 1 1871 0
	subl	$5, %ecx
.LVL1238:
	.loc 1 1872 0
	addl	$1, %ebp
.LVL1239:
	.loc 1 1870 0
	imulw	1(%ecx), %ax
.LVL1240:
	movw	%ax, -4(%ecx)
.LVL1241:
	.loc 1 1871 0
	movl	%ecx, 20(%edi)
.LVL1242:
	.loc 1 1873 0
	jmp	.L313
.LVL1243:
.L528:
.LBE3777:
.LBE3786:
.LBE3789:
.LBE4223:
.LBB4224:
.LBB4021:
.LBB4016:
.LBB4011:
.LBB4001:
	.loc 1 3511 0
	movswl	-4(%eax), %edx
	jmp	.L952
.LVL1244:
.L529:
.LBE4001:
.LBB4002:
	.loc 1 3505 0
	movl	-4(%eax), %esi
	movl	$0, (%eax)
	.loc 1 3506 0
	addl	$4, %eax
.LVL1245:
	.loc 1 3505 0
	movl	%esi, -8(%eax)
	.loc 1 3506 0
	movl	%eax, 20(%edi)
	jmp	.L533
.LVL1246:
.L532:
.LBE4002:
.LBB4003:
	.loc 1 3529 0
	flds	.LC160@GOTOFF(%ebx)
	fldl	-8(%eax)
	fucomi	%st(1), %st
	jnb	.L534
	fstp	%st(1)
	fnstcw	70(%esp)
.LVL1247:
	movzwl	70(%esp), %edx
	movb	$12, %dh
	movw	%dx, 68(%esp)
	fldcw	68(%esp)
	fistpq	-8(%eax)
	fldcw	70(%esp)
	jmp	.L953
.LVL1248:
.L495:
.LBE4003:
.LBE4011:
.LBE4016:
.LBE4021:
.LBE4224:
.LBB4225:
.LBB4049:
.LBB4045:
.LBB4041:
.LBB4032:
	.loc 1 3439 0
	leal	-4(%eax), %edx
	.loc 1 3441 0
	addl	$4, %eax
	.loc 1 3439 0
	movl	%edx, 20(%edi)
	.loc 1 3440 0
	movzbl	-8(%eax), %edx
	movl	$0, -4(%eax)
	movl	%edx, -8(%eax)
	.loc 1 3441 0
	movl	%eax, 20(%edi)
	jmp	.L503
.L497:
.LBE4032:
.LBB4033:
	.loc 1 3445 0
	leal	-4(%eax), %edx
	movl	%edx, 20(%edi)
.LVL1249:
	.loc 1 3446 0
	movsbl	-4(%eax), %edx
.LVL1250:
	jmp	.L947
.LVL1251:
.L498:
.LBE4033:
.LBB4034:
	.loc 1 3458 0
	movswl	-4(%eax), %edx
	jmp	.L947
.LVL1252:
.L615:
.LBE4034:
.LBE4041:
.LBE4045:
.LBE4049:
.LBE4225:
	.loc 1 1410 0
	notb	-1(%eax)
	.loc 1 1411 0
	jmp	.L942
.L617:
	.loc 1 1413 0
	notb	-1(%eax)
	.loc 1 1414 0
	jmp	.L942
.L618:
	.loc 1 1419 0
	notw	-2(%eax)
	.loc 1 1420 0
	jmp	.L942
.L619:
	.loc 1 1416 0
	movl	8(%esp), %edx
	notl	%edx
	movl	%edx, -4(%eax)
	.loc 1 1417 0
	jmp	.L942
.L620:
	.loc 1 1422 0
	movl	%ecx, -4(%eax)
	.loc 1 1423 0
	jmp	.L942
.L621:
	.loc 1 1428 0
	notl	-8(%eax)
	notl	-4(%eax)
	.loc 1 1429 0
	jmp	.L942
.L622:
	.loc 1 1425 0
	notl	-8(%eax)
	notl	-4(%eax)
	.loc 1 1426 0
	jmp	.L942
.LVL1253:
.L778:
.LBB4226:
.LBB3334:
.LBB3315:
.LBB3316:
	.loc 1 2392 0
	leal	-4(%esi), %eax
	movl	%eax, 20(%edi)
.LVL1254:
	.loc 1 2393 0
	leal	-9(%esi), %eax
	.loc 1 2392 0
	movzbl	-4(%esi), %ecx
.LVL1255:
	.loc 1 2396 0
	subl	$5, %esi
	.loc 1 2393 0
	movl	%eax, 20(%edi)
	.loc 1 2395 0
	movzbl	-4(%esi), %eax
	sarl	%cl, %eax
	movl	%eax, -4(%esi)
	.loc 1 2396 0
	movl	%esi, 20(%edi)
.LBE3316:
	.loc 1 2398 0
	jmp	.L942
.LVL1256:
.L767:
.LBE3315:
.LBE3334:
.LBE4226:
.LBB4227:
.LBB3910:
.LBB3892:
.LBB3893:
	.loc 1 2226 0
	pushl	-4(%esi)
	.cfi_def_cfa_offset 148
.LVL1257:
	pushl	-8(%esi)
	.cfi_def_cfa_offset 152
	.loc 1 2227 0
	subl	$9, %esi
	.loc 1 2226 0
	pushl	-4(%esi)
	.cfi_def_cfa_offset 156
	pushl	-8(%esi)
	.cfi_def_cfa_offset 160
	call	__moddi3@PLT
.LVL1258:
	movl	%eax, -8(%esi)
	movl	%edx, -4(%esi)
	addl	$16, %esp
	.cfi_def_cfa_offset 144
	.loc 1 2227 0
	movl	%esi, 20(%edi)
.LBE3893:
	.loc 1 2229 0
	jmp	.L942
.LVL1259:
.L784:
.LBE3892:
.LBE3910:
.LBE4227:
.LBB4228:
.LBB3335:
.LBB3331:
.LBB3317:
	.loc 1 2377 0
	movl	-8(%esi), %ecx
	movl	-13(%esi), %edx
	movl	-17(%esi), %eax
	shrdl	%edx, %eax
	shrl	%cl, %edx
	testb	$32, %cl
	je	.L993
	movl	%edx, %eax
	xorl	%edx, %edx
.L993:
	movl	%eax, -17(%esi)
.LVL1260:
	movl	%edx, -13(%esi)
	.loc 1 2378 0
	subl	$9, %esi
.LVL1261:
	movl	%esi, 20(%edi)
.LVL1262:
.LBE3317:
	.loc 1 2380 0
	jmp	.L942
.LVL1263:
.L785:
.LBB3318:
	.loc 1 2386 0
	movl	-8(%esi), %ecx
	movl	-13(%esi), %edx
	movl	-17(%esi), %eax
	shrdl	%edx, %eax
	sarl	%cl, %edx
	testb	$32, %cl
	je	.L992
	movl	%edx, %eax
	sarl	$31, %edx
.L992:
	movl	%eax, -17(%esi)
.LVL1264:
	movl	%edx, -13(%esi)
	.loc 1 2387 0
	subl	$9, %esi
.LVL1265:
	movl	%esi, 20(%edi)
.LVL1266:
.LBE3318:
	.loc 1 2389 0
	jmp	.L942
.LVL1267:
.L769:
.LBE3331:
.LBE3335:
.LBE4228:
.LBB4229:
.LBB3358:
.LBB3340:
.LBB3341:
	.loc 1 2319 0
	leal	-4(%esi), %eax
	movl	%eax, 20(%edi)
.LVL1268:
	.loc 1 2320 0
	leal	-9(%esi), %eax
	.loc 1 2319 0
	movzbl	-4(%esi), %ecx
.LVL1269:
	.loc 1 2323 0
	subl	$5, %esi
	.loc 1 2320 0
	movl	%eax, 20(%edi)
	.loc 1 2322 0
	movzbl	-4(%esi), %eax
	sall	%cl, %eax
	movl	%eax, -4(%esi)
	.loc 1 2323 0
	movl	%esi, 20(%edi)
.LBE3341:
	.loc 1 2325 0
	jmp	.L942
.LVL1270:
.L771:
.LBB3342:
	.loc 1 2328 0
	leal	-4(%esi), %eax
	movl	%eax, 20(%edi)
.LVL1271:
	.loc 1 2329 0
	leal	-9(%esi), %eax
	.loc 1 2328 0
	movzbl	-4(%esi), %ecx
.LVL1272:
	.loc 1 2332 0
	subl	$5, %esi
	.loc 1 2329 0
	movl	%eax, 20(%edi)
	.loc 1 2331 0
	movsbl	-4(%esi), %eax
	sall	%cl, %eax
	movl	%eax, -4(%esi)
	.loc 1 2332 0
	movl	%esi, 20(%edi)
.LBE3342:
	.loc 1 2334 0
	jmp	.L942
.LVL1273:
.L772:
.LBB3343:
	.loc 1 2340 0
	movswl	-9(%esi), %eax
	movswl	-4(%esi), %ecx
	.loc 1 2341 0
	subl	$5, %esi
.LVL1274:
	.loc 1 2340 0
	sall	%cl, %eax
	movl	%eax, -4(%esi)
.LVL1275:
	.loc 1 2341 0
	movl	%esi, 20(%edi)
.LVL1276:
.LBE3343:
	.loc 1 2343 0
	jmp	.L942
.LVL1277:
.L773:
.LBB3344:
	.loc 1 2349 0
	movl	-4(%esi), %ecx
	sall	%cl, -9(%esi)
.LVL1278:
	.loc 1 2350 0
	subl	$5, %esi
.LVL1279:
	movl	%esi, 20(%edi)
.LVL1280:
.LBE3344:
	.loc 1 2352 0
	jmp	.L942
.LVL1281:
.L774:
.LBB3345:
	.loc 1 2358 0
	movl	-4(%esi), %ecx
	sall	%cl, -9(%esi)
.LVL1282:
	.loc 1 2359 0
	subl	$5, %esi
.LVL1283:
	movl	%esi, 20(%edi)
.LVL1284:
.LBE3345:
	.loc 1 2361 0
	jmp	.L942
.LVL1285:
.L488:
.LBE3340:
.LBE3358:
.LBE4229:
.LBB4230:
.LBB3969:
.LBB3965:
.LBB3961:
.LBB3957:
	.loc 1 3292 0
	leal	-4(%eax), %edx
	movl	%edx, 20(%edi)
.LVL1286:
	.loc 1 3293 0
	movsbl	-4(%eax), %edx
.LVL1287:
	movl	%edx, -4(%eax)
.LVL1288:
	.loc 1 3294 0
	movl	%eax, 20(%edi)
	jmp	.L490
.LVL1289:
.L489:
.LBE3957:
.LBB3958:
	.loc 1 3305 0
	movswl	-4(%eax), %edx
	movl	%edx, -4(%eax)
.LVL1290:
	.loc 1 3306 0
	movl	%eax, 20(%edi)
	jmp	.L490
.LVL1291:
.L515:
.LBE3958:
.LBE3961:
.LBE3965:
.LBE3969:
.LBE4230:
.LBB4231:
.LBB3703:
.LBB3700:
.LBB3697:
.LBB3689:
	.loc 1 3386 0
	leal	-4(%ecx), %eax
	movl	%eax, 20(%edi)
.LVL1292:
	.loc 1 3387 0
	movzbl	-4(%ecx), %eax
.LVL1293:
	movl	%eax, -4(%ecx)
.LVL1294:
	.loc 1 3388 0
	movl	%ecx, 20(%edi)
	jmp	.L523
.LVL1295:
.L517:
.LBE3689:
.LBB3690:
	.loc 1 3392 0
	leal	-4(%ecx), %eax
	movl	%eax, 20(%edi)
.LVL1296:
	.loc 1 3393 0
	movsbl	-4(%ecx), %eax
.LVL1297:
	movl	%eax, -4(%ecx)
.LVL1298:
	.loc 1 3394 0
	movl	%ecx, 20(%edi)
	jmp	.L523
.LVL1299:
.L518:
.LBE3690:
.LBB3691:
	.loc 1 3399 0
	movswl	-4(%ecx), %eax
	movl	%eax, -4(%ecx)
.LVL1300:
	.loc 1 3400 0
	movl	%ecx, 20(%edi)
	jmp	.L523
.LVL1301:
.L780:
.LBE3691:
.LBE3697:
.LBE3700:
.LBE3703:
.LBE4231:
.LBB4232:
.LBB3336:
.LBB3332:
.LBB3319:
	.loc 1 2401 0
	leal	-4(%esi), %eax
	movl	%eax, 20(%edi)
.LVL1302:
	.loc 1 2402 0
	leal	-9(%esi), %eax
	.loc 1 2401 0
	movzbl	-4(%esi), %ecx
.LVL1303:
	.loc 1 2405 0
	subl	$5, %esi
	.loc 1 2402 0
	movl	%eax, 20(%edi)
	.loc 1 2404 0
	movsbl	-4(%esi), %eax
	sarl	%cl, %eax
	movl	%eax, -4(%esi)
	.loc 1 2405 0
	movl	%esi, 20(%edi)
.LBE3319:
	.loc 1 2407 0
	jmp	.L942
.LVL1304:
.L781:
.LBB3320:
	.loc 1 2413 0
	movswl	-9(%esi), %eax
	movswl	-4(%esi), %ecx
	.loc 1 2414 0
	subl	$5, %esi
.LVL1305:
	.loc 1 2413 0
	sarl	%cl, %eax
	movl	%eax, -4(%esi)
.LVL1306:
	.loc 1 2414 0
	movl	%esi, 20(%edi)
.LVL1307:
.LBE3320:
	.loc 1 2416 0
	jmp	.L942
.LVL1308:
.L782:
.LBB3321:
	.loc 1 2422 0
	movl	-4(%esi), %ecx
	shrl	%cl, -9(%esi)
.LVL1309:
	.loc 1 2423 0
	subl	$5, %esi
.LVL1310:
	movl	%esi, 20(%edi)
.LVL1311:
.LBE3321:
	.loc 1 2425 0
	jmp	.L942
.LVL1312:
.L783:
.LBB3322:
	.loc 1 2431 0
	movl	-4(%esi), %ecx
	sarl	%cl, -9(%esi)
.LVL1313:
	.loc 1 2432 0
	subl	$5, %esi
.LVL1314:
	movl	%esi, 20(%edi)
.LVL1315:
.LBE3322:
	.loc 1 2434 0
	jmp	.L942
.LVL1316:
.L468:
.LBE3332:
.LBE3336:
.LBE4232:
.LBB4233:
.LBB3945:
.LBB3942:
.LBB3939:
.LBB3932:
	.loc 1 3233 0
	leal	-4(%eax), %edx
	movl	%edx, 20(%edi)
.LVL1317:
	.loc 1 3234 0
	movzbl	-4(%eax), %edx
.LVL1318:
	movw	%dx, -4(%eax)
.LVL1319:
	.loc 1 3235 0
	movl	%eax, 20(%edi)
	jmp	.L476
.LVL1320:
.L470:
.LBE3932:
.LBB3933:
	.loc 1 3239 0
	leal	-4(%eax), %edx
	movl	%edx, 20(%edi)
.LVL1321:
	.loc 1 3240 0
	movsbw	-4(%eax), %dx
.LVL1322:
	movw	%dx, -4(%eax)
.LVL1323:
	.loc 1 3241 0
	movl	%eax, 20(%edi)
	jmp	.L476
.LVL1324:
.L548:
.LBE3933:
.LBE3939:
.LBE3942:
.LBE3945:
.LBE4233:
.LBB4234:
.LBB3046:
.LBB2957:
.LBB2856:
	.loc 1 974 0
	leal	-4(%esi), %eax
	.loc 1 979 0
	addl	$1, %ebp
.LVL1325:
	.loc 1 974 0
	movl	%eax, 20(%edi)
.LVL1326:
	.loc 1 975 0
	leal	-9(%esi), %eax
	.loc 1 974 0
	movzbl	-4(%esi), %edx
.LVL1327:
	.loc 1 978 0
	subl	$5, %esi
	.loc 1 975 0
	movl	%eax, 20(%edi)
.LVL1328:
	.loc 1 977 0
	movzbl	-4(%esi), %eax
	divb	%dl
	movzbl	%al, %eax
	movl	%eax, -4(%esi)
	.loc 1 978 0
	movl	%esi, 20(%edi)
	.loc 1 980 0
	jmp	.L313
.LVL1329:
.L550:
.LBE2856:
.LBB2857:
	.loc 1 984 0
	leal	-4(%esi), %eax
	.loc 1 989 0
	addl	$1, %ebp
.LVL1330:
	.loc 1 984 0
	movl	%eax, 20(%edi)
.LVL1331:
	.loc 1 985 0
	leal	-9(%esi), %eax
	.loc 1 984 0
	movsbl	-4(%esi), %ecx
.LVL1332:
	.loc 1 988 0
	subl	$5, %esi
	.loc 1 985 0
	movl	%eax, 20(%edi)
.LVL1333:
	.loc 1 987 0
	movsbl	-4(%esi), %eax
	cltd
	idivl	%ecx
	movsbl	%al, %eax
	movl	%eax, -4(%esi)
	.loc 1 988 0
	movl	%esi, 20(%edi)
	.loc 1 990 0
	jmp	.L313
.LVL1334:
.L551:
.LBE2857:
.LBB2858:
	.loc 1 997 0
	movswl	-9(%esi), %eax
	movswl	-4(%esi), %ecx
	.loc 1 998 0
	subl	$5, %esi
.LVL1335:
	.loc 1 999 0
	addl	$1, %ebp
.LVL1336:
	.loc 1 997 0
	cltd
	idivl	%ecx
	cwtl
	movl	%eax, -4(%esi)
.LVL1337:
	.loc 1 998 0
	movl	%esi, 20(%edi)
.LVL1338:
	.loc 1 1000 0
	jmp	.L313
.LVL1339:
.L552:
.LBE2858:
.LBB2859:
	.loc 1 1007 0
	movl	-9(%esi), %eax
	xorl	%edx, %edx
	.loc 1 1009 0
	addl	$1, %ebp
.LVL1340:
	.loc 1 1007 0
	divl	-4(%esi)
	.loc 1 1008 0
	subl	$5, %esi
.LVL1341:
	.loc 1 1007 0
	movl	%eax, -4(%esi)
.LVL1342:
	.loc 1 1008 0
	movl	%esi, 20(%edi)
.LVL1343:
	.loc 1 1010 0
	jmp	.L313
.LVL1344:
.L553:
.LBE2859:
.LBB2860:
	.loc 1 1017 0
	movl	-9(%esi), %eax
	.loc 1 1019 0
	addl	$1, %ebp
.LVL1345:
	.loc 1 1017 0
	cltd
	idivl	-4(%esi)
	.loc 1 1018 0
	subl	$5, %esi
.LVL1346:
	.loc 1 1017 0
	movl	%eax, -4(%esi)
.LVL1347:
	.loc 1 1018 0
	movl	%esi, 20(%edi)
.LVL1348:
	.loc 1 1020 0
	jmp	.L313
.LVL1349:
.L554:
.LBE2860:
.LBB2861:
	.loc 1 967 0
	pushl	-4(%esi)
	.cfi_def_cfa_offset 148
.LVL1350:
	pushl	-8(%esi)
	.cfi_def_cfa_offset 152
	pushl	-13(%esi)
	.cfi_def_cfa_offset 156
	pushl	-17(%esi)
	.cfi_def_cfa_offset 160
	call	__udivdi3@PLT
.LVL1351:
.L941:
	movl	%eax, -17(%esi)
	movl	%edx, -13(%esi)
	.loc 1 968 0
	subl	$9, %esi
	.loc 1 967 0
	addl	$16, %esp
	.cfi_def_cfa_offset 144
	.loc 1 968 0
	movl	%esi, 20(%edi)
	.loc 1 969 0
	addl	$1, %ebp
.LVL1352:
	jmp	.L313
.LVL1353:
.L555:
.LBE2861:
.LBB2862:
	.loc 1 957 0
	pushl	-4(%esi)
	.cfi_remember_state
	.cfi_def_cfa_offset 148
.LVL1354:
	pushl	-8(%esi)
	.cfi_def_cfa_offset 152
	pushl	-13(%esi)
	.cfi_def_cfa_offset 156
	pushl	-17(%esi)
	.cfi_def_cfa_offset 160
	call	__divdi3@PLT
.LVL1355:
	jmp	.L941
.LVL1356:
.L775:
	.cfi_restore_state
.LBE2862:
.LBE2957:
.LBE3046:
.LBE4234:
.LBB4235:
.LBB3359:
.LBB3356:
.LBB3346:
	.loc 1 2304 0
	movl	-8(%esi), %ecx
	movl	-17(%esi), %eax
	movl	-13(%esi), %edx
	shldl	%eax, %edx
	sall	%cl, %eax
	testb	$32, %cl
	je	.L991
	movl	%eax, %edx
	xorl	%eax, %eax
.L991:
	movl	%eax, -17(%esi)
.LVL1357:
	movl	%edx, -13(%esi)
	.loc 1 2305 0
	subl	$9, %esi
.LVL1358:
	movl	%esi, 20(%edi)
.LVL1359:
.LBE3346:
	.loc 1 2307 0
	jmp	.L942
.LVL1360:
.L776:
.LBB3347:
	.loc 1 2313 0
	movl	-8(%esi), %ecx
	movl	-17(%esi), %eax
	movl	-13(%esi), %edx
	shldl	%eax, %edx
	sall	%cl, %eax
	testb	$32, %cl
	je	.L990
	movl	%eax, %edx
	xorl	%eax, %eax
.L990:
	movl	%eax, -17(%esi)
.LVL1361:
	movl	%edx, -13(%esi)
	.loc 1 2314 0
	subl	$9, %esi
.LVL1362:
	movl	%esi, 20(%edi)
.LVL1363:
.LBE3347:
	.loc 1 2316 0
	jmp	.L942
.LVL1364:
.L763:
.LBE3356:
.LBE3359:
.LBE4235:
.LBB4236:
.LBB3911:
.LBB3908:
.LBB3894:
	.loc 1 2253 0
	movswl	-9(%esi), %eax
	movswl	-4(%esi), %ecx
	.loc 1 2254 0
	subl	$5, %esi
.LVL1365:
	.loc 1 2253 0
	cltd
	idivl	%ecx
	movl	%edx, -4(%esi)
.LVL1366:
	.loc 1 2254 0
	movl	%esi, 20(%edi)
.LVL1367:
.LBE3894:
	.loc 1 2256 0
	jmp	.L942
.LVL1368:
.L764:
.LBB3895:
	.loc 1 2262 0
	movl	-9(%esi), %eax
	xorl	%edx, %edx
	divl	-4(%esi)
	.loc 1 2263 0
	subl	$5, %esi
.LVL1369:
	.loc 1 2262 0
	movl	%edx, -4(%esi)
.LVL1370:
	.loc 1 2263 0
	movl	%esi, 20(%edi)
.LVL1371:
.LBE3895:
	.loc 1 2265 0
	jmp	.L942
.LVL1372:
.L765:
.LBB3896:
	.loc 1 2271 0
	movl	-9(%esi), %eax
	cltd
	idivl	-4(%esi)
	.loc 1 2272 0
	subl	$5, %esi
.LVL1373:
	.loc 1 2271 0
	movl	%edx, -4(%esi)
.LVL1374:
	.loc 1 2272 0
	movl	%esi, 20(%edi)
.LVL1375:
.LBE3896:
	.loc 1 2274 0
	jmp	.L942
.LVL1376:
.L766:
.LBB3897:
	.loc 1 2217 0
	pushl	-4(%esi)
	.cfi_def_cfa_offset 148
.LVL1377:
	pushl	-8(%esi)
	.cfi_def_cfa_offset 152
	.loc 1 2218 0
	subl	$9, %esi
	.loc 1 2217 0
	pushl	-4(%esi)
	.cfi_def_cfa_offset 156
	pushl	-8(%esi)
	.cfi_def_cfa_offset 160
	call	__umoddi3@PLT
.LVL1378:
	movl	%eax, -8(%esi)
	movl	%edx, -4(%esi)
	addl	$16, %esp
	.cfi_def_cfa_offset 144
	.loc 1 2218 0
	movl	%esi, 20(%edi)
.LBE3897:
	.loc 1 2220 0
	jmp	.L942
.LVL1379:
.L760:
.LBB3898:
	.loc 1 2232 0
	leal	-4(%esi), %eax
	movl	%eax, 20(%edi)
.LVL1380:
	.loc 1 2233 0
	leal	-9(%esi), %eax
	.loc 1 2232 0
	movzbl	-4(%esi), %edx
.LVL1381:
	.loc 1 2236 0
	subl	$5, %esi
	.loc 1 2233 0
	movl	%eax, 20(%edi)
	.loc 1 2235 0
	movzbl	-4(%esi), %eax
	divb	%dl
	movzbl	%ah, %eax
	movl	%eax, -4(%esi)
	.loc 1 2236 0
	movl	%esi, 20(%edi)
.LBE3898:
	.loc 1 2238 0
	jmp	.L942
.LVL1382:
.L762:
.LBB3899:
	.loc 1 2241 0
	leal	-4(%esi), %eax
	movl	%eax, 20(%edi)
.LVL1383:
	.loc 1 2242 0
	leal	-9(%esi), %eax
	.loc 1 2241 0
	movsbl	-4(%esi), %ecx
.LVL1384:
	.loc 1 2245 0
	subl	$5, %esi
	.loc 1 2242 0
	movl	%eax, 20(%edi)
	.loc 1 2244 0
	movsbl	-4(%esi), %eax
	cltd
	idivl	%ecx
	movl	%edx, -4(%esi)
	.loc 1 2245 0
	movl	%esi, 20(%edi)
.LBE3899:
	.loc 1 2247 0
	jmp	.L942
.LVL1385:
.L486:
.LBE3908:
.LBE3911:
.LBE4236:
.LBB4237:
.LBB3970:
.LBB3966:
.LBB3962:
.LBB3959:
	.loc 1 3286 0
	leal	-4(%eax), %edx
	movl	%edx, 20(%edi)
.LVL1386:
	.loc 1 3287 0
	movzbl	-4(%eax), %edx
.LVL1387:
	movl	%edx, -4(%eax)
.LVL1388:
	.loc 1 3288 0
	movl	%eax, 20(%edi)
	jmp	.L490
.LVL1389:
.L841:
.LBE3959:
.LBE3962:
.LBE3966:
.LBE3970:
.LBE4237:
.LBB4238:
.LBB3814:
.LBB3796:
.LBB3797:
	.loc 1 2573 0
	movl	-4(%ecx), %eax
	subl	%eax, -9(%ecx)
.LVL1390:
	.loc 1 2574 0
	subl	$5, %ecx
.LVL1391:
	movl	%ecx, 20(%edi)
.LVL1392:
.LBE3797:
	.loc 1 2576 0
	jmp	.L942
.LVL1393:
.L842:
.LBB3798:
	.loc 1 2582 0
	movl	-4(%ecx), %eax
	subl	%eax, -9(%ecx)
.LVL1394:
	.loc 1 2583 0
	subl	$5, %ecx
.LVL1395:
	movl	%ecx, 20(%edi)
.LVL1396:
.LBE3798:
	.loc 1 2585 0
	jmp	.L942
.LVL1397:
.L843:
.LBB3799:
	.loc 1 2528 0
	movl	-8(%ecx), %eax
	subl	%eax, -17(%ecx)
.LVL1398:
	movl	-4(%ecx), %edx
	sbbl	%edx, -13(%ecx)
	.loc 1 2529 0
	subl	$9, %ecx
.LVL1399:
	movl	%ecx, 20(%edi)
.LVL1400:
.LBE3799:
	.loc 1 2531 0
	jmp	.L942
.LVL1401:
.L844:
.LBB3800:
	.loc 1 2537 0
	movl	-8(%ecx), %eax
	subl	%eax, -17(%ecx)
.LVL1402:
	movl	-4(%ecx), %edx
	sbbl	%edx, -13(%ecx)
	.loc 1 2538 0
	subl	$9, %ecx
.LVL1403:
	movl	%ecx, 20(%edi)
.LVL1404:
.LBE3800:
	.loc 1 2540 0
	jmp	.L942
.LVL1405:
.L422:
.LBE3796:
.LBE3814:
.LBE4238:
.LBB4239:
.LBB3839:
.LBB3835:
.LBB3825:
	.loc 1 607 0
	leal	-4(%ecx), %eax
	movl	%eax, 20(%edi)
.LVL1406:
	.loc 1 608 0
	leal	-9(%ecx), %eax
	.loc 1 607 0
	movzbl	-4(%ecx), %edx
.LVL1407:
	.loc 1 611 0
	subl	$5, %ecx
	.loc 1 608 0
	movl	%eax, 20(%edi)
	.loc 1 610 0
	movzbl	-4(%ecx), %eax
	addl	%edx, %eax
	movl	%eax, -4(%ecx)
	.loc 1 611 0
	movl	%ecx, 20(%edi)
.LBE3825:
	.loc 1 613 0
	jmp	.L942
.LVL1408:
.L424:
.LBB3826:
	.loc 1 616 0
	leal	-4(%ecx), %eax
	movl	%eax, 20(%edi)
.LVL1409:
	.loc 1 617 0
	leal	-9(%ecx), %eax
	.loc 1 616 0
	movsbl	-4(%ecx), %edx
.LVL1410:
	.loc 1 620 0
	subl	$5, %ecx
	.loc 1 617 0
	movl	%eax, 20(%edi)
	.loc 1 619 0
	movsbl	-4(%ecx), %eax
	addl	%edx, %eax
	movl	%eax, -4(%ecx)
	.loc 1 620 0
	movl	%ecx, 20(%edi)
.LBE3826:
	.loc 1 622 0
	jmp	.L942
.LVL1411:
.L425:
.LBB3827:
	.loc 1 628 0
	movswl	-9(%ecx), %eax
	movswl	-4(%ecx), %edx
	.loc 1 629 0
	subl	$5, %ecx
.LVL1412:
	.loc 1 628 0
	addl	%edx, %eax
	movl	%eax, -4(%ecx)
.LVL1413:
	.loc 1 629 0
	movl	%ecx, 20(%edi)
.LVL1414:
.LBE3827:
	.loc 1 631 0
	jmp	.L942
.LVL1415:
.L837:
.LBE3835:
.LBE3839:
.LBE4239:
.LBB4240:
.LBB3815:
.LBB3812:
.LBB3801:
	.loc 1 2543 0
	leal	-4(%ecx), %eax
	movl	%eax, 20(%edi)
.LVL1416:
	.loc 1 2544 0
	leal	-9(%ecx), %eax
	.loc 1 2543 0
	movzbl	-4(%ecx), %edx
.LVL1417:
	.loc 1 2547 0
	subl	$5, %ecx
	.loc 1 2544 0
	movl	%eax, 20(%edi)
	.loc 1 2546 0
	movzbl	-4(%ecx), %eax
	subl	%edx, %eax
	movl	%eax, -4(%ecx)
	.loc 1 2547 0
	movl	%ecx, 20(%edi)
.LBE3801:
	.loc 1 2549 0
	jmp	.L942
.LVL1418:
.L839:
.LBB3802:
	.loc 1 2552 0
	leal	-4(%ecx), %eax
	movl	%eax, 20(%edi)
.LVL1419:
	.loc 1 2553 0
	leal	-9(%ecx), %eax
	.loc 1 2552 0
	movsbl	-4(%ecx), %edx
.LVL1420:
	.loc 1 2556 0
	subl	$5, %ecx
	.loc 1 2553 0
	movl	%eax, 20(%edi)
	.loc 1 2555 0
	movsbl	-4(%ecx), %eax
	subl	%edx, %eax
	movl	%eax, -4(%ecx)
	.loc 1 2556 0
	movl	%ecx, 20(%edi)
.LBE3802:
	.loc 1 2558 0
	jmp	.L942
.LVL1421:
.L840:
.LBB3803:
	.loc 1 2564 0
	movswl	-9(%ecx), %eax
	movswl	-4(%ecx), %edx
	.loc 1 2565 0
	subl	$5, %ecx
.LVL1422:
	.loc 1 2564 0
	subl	%edx, %eax
	movl	%eax, -4(%ecx)
.LVL1423:
	.loc 1 2565 0
	movl	%ecx, 20(%edi)
.LVL1424:
.LBE3803:
	.loc 1 2567 0
	jmp	.L942
.LVL1425:
.L854:
.LBE3812:
.LBE3815:
.LBE4240:
.LBB4241:
.LBB3114:
.LBB3093:
.LBB3094:
	.loc 1 2673 0
	movl	-4(%eax), %edx
	xorl	%edx, -9(%eax)
.LVL1426:
	.loc 1 2674 0
	subl	$5, %eax
.LVL1427:
	movl	%eax, 20(%edi)
.LVL1428:
.LBE3094:
	.loc 1 2676 0
	jmp	.L942
.LVL1429:
.L852:
.LBB3095:
	.loc 1 2610 0
	movl	-8(%eax), %edx
	xorl	%edx, -17(%eax)
.LVL1430:
	movl	-4(%eax), %edx
	xorl	%edx, -13(%eax)
	.loc 1 2611 0
	subl	$9, %eax
.LVL1431:
	movl	%eax, 20(%edi)
.LVL1432:
.LBE3095:
	.loc 1 2613 0
	jmp	.L942
.LVL1433:
.L853:
.LBB3096:
	.loc 1 2619 0
	movl	-8(%eax), %edx
	xorl	%edx, -17(%eax)
.LVL1434:
	movl	-4(%eax), %edx
	xorl	%edx, -13(%eax)
	.loc 1 2620 0
	subl	$9, %eax
.LVL1435:
	movl	%eax, 20(%edi)
.LVL1436:
.LBE3096:
	.loc 1 2622 0
	jmp	.L942
.LVL1437:
.L697:
.LBE3093:
.LBE3114:
.LBE4241:
.LBB4242:
.LBB3087:
.LBB3066:
.LBB3067:
	.loc 1 1761 0
	leal	-4(%eax), %edx
	movl	%edx, 20(%edi)
.LVL1438:
	.loc 1 1762 0
	leal	-9(%eax), %edx
	.loc 1 1761 0
	movzbl	-4(%eax), %ecx
.LVL1439:
	.loc 1 1762 0
	movl	%edx, 20(%edi)
.LVL1440:
	.loc 1 1764 0
	cmpb	-9(%eax), %cl
	setge	%cl
.LVL1441:
	movzbl	%cl, %ecx
	movl	%ecx, -9(%eax)
.LVL1442:
	.p2align 4,,10
	.p2align 3
.L704:
.LBE3067:
.LBE3066:
.LBE3087:
	.loc 1 1819 0
	leal	4(%edx), %eax
.LBE4242:
.LBB4243:
.LBB3047:
.LBB2958:
.LBB2863:
	.loc 1 969 0
	addl	$1, %ebp
.LVL1443:
.LBE2863:
.LBE2958:
.LBE3047:
.LBE4243:
.LBB4244:
	.loc 1 1819 0
	movl	%eax, 20(%edi)
	movb	$9, 4(%edx)
	jmp	.L313
.L545:
.LBE4244:
	.loc 1 939 0
	fld1
	.loc 1 940 0
	addl	$1, %ebp
.LVL1444:
	.loc 1 939 0
	fsubrl	-8(%eax)
	fstpl	-8(%eax)
	.loc 1 941 0
	jmp	.L313
.LVL1445:
.L850:
.LBB4245:
.LBB3115:
.LBB3110:
.LBB3097:
	.loc 1 2655 0
	movl	-4(%eax), %edx
	xorl	%edx, -9(%eax)
.LVL1446:
	.loc 1 2656 0
	subl	$5, %eax
.LVL1447:
	movl	%eax, 20(%edi)
.LVL1448:
.LBE3097:
	.loc 1 2658 0
	jmp	.L942
.LVL1449:
.L851:
.LBB3098:
	.loc 1 2664 0
	movl	-4(%eax), %edx
	xorl	%edx, -9(%eax)
.LVL1450:
	.loc 1 2665 0
	subl	$5, %eax
.LVL1451:
	movl	%eax, 20(%edi)
.LVL1452:
.LBE3098:
	.loc 1 2667 0
	jmp	.L942
.LVL1453:
.L443:
.LBE3110:
.LBE3115:
.LBE4245:
.LBB4246:
.LBB3756:
.LBB3735:
.LBB3732:
.LBB3730:
.LBB3723:
.LBB3724:
.LBB3725:
.LBB3726:
	.loc 3 78 0
	subl	$12, %esp
	.cfi_def_cfa_offset 156
	pushl	%esi
	.cfi_def_cfa_offset 160
.LVL1454:
	call	get_capacity@PLT
.LVL1455:
	movl	%eax, 508(%edi)
	.loc 3 79 0
	leal	(%esi,%esi,2), %eax
	sall	$2, %eax
	movl	%eax, (%esp)
	call	kmalloc@PLT
.LVL1456:
.LBB3727:
	.loc 3 81 0
	movl	504(%edi), %edx
	addl	$16, %esp
	.cfi_def_cfa_offset 144
.LBE3727:
	.loc 3 79 0
	movl	%eax, %esi
.LVL1457:
	movl	500(%edi), %eax
.LVL1458:
.LBB3728:
	.loc 3 81 0
	testl	%edx, %edx
	je	.L446
	leal	(%edx,%edx,2), %edx
	movl	%ebp, 48(%esp)
	movl	%edi, 144(%esp)
	leal	(%eax,%edx,4), %ecx
	movl	%eax, %edx
	movl	%ecx, %ebp
.LVL1459:
	.p2align 4,,10
	.p2align 3
.L447:
	.loc 3 83 0
	movl	(%edx), %edi
	movl	%edx, %ecx
	addl	$12, %edx
	subl	%eax, %ecx
	movl	%edi, (%esi,%ecx)
	movl	-8(%edx), %edi
	movl	%edi, 4(%esi,%ecx)
	movl	-4(%edx), %edi
	.loc 3 81 0
	cmpl	%ebp, %edx
	.loc 3 83 0
	movl	%edi, 8(%esi,%ecx)
	.loc 3 81 0
	jne	.L447
	movl	48(%esp), %ebp
	movl	144(%esp), %edi
.LVL1460:
.L446:
.LBE3728:
	.loc 3 86 0
	subl	$12, %esp
	.cfi_def_cfa_offset 156
	pushl	%eax
	.cfi_def_cfa_offset 160
	call	kfree@PLT
.LVL1461:
	.loc 3 87 0
	movl	%esi, 500(%edi)
	movl	504(%edi), %eax
	addl	$16, %esp
	.cfi_def_cfa_offset 144
	jmp	.L444
.LVL1462:
.L748:
.LBE3726:
.LBE3725:
.LBE3724:
.LBE3723:
.LBE3730:
.LBE3732:
.LBE3735:
.LBE3756:
.LBE4246:
.LBB4247:
.LBB3197:
.LBB3178:
.LBB3179:
	.loc 1 2128 0
	leal	-4(%eax), %edx
	.loc 1 2129 0
	leal	-9(%eax), %ecx
	.loc 1 2132 0
	subl	$5, %eax
.LVL1463:
	.loc 1 2128 0
	movl	%edx, 20(%edi)
.LVL1464:
	movzbl	1(%eax), %edx
.LVL1465:
	.loc 1 2129 0
	movl	%ecx, 20(%edi)
	.loc 1 2131 0
	orb	-4(%eax), %dl
.LVL1466:
	movzbl	%dl, %edx
	movl	%edx, -4(%eax)
	.loc 1 2132 0
	movl	%eax, 20(%edi)
.LBE3179:
	.loc 1 2134 0
	jmp	.L942
.LVL1467:
.L750:
.LBB3180:
	.loc 1 2137 0
	leal	-4(%eax), %edx
	.loc 1 2138 0
	leal	-9(%eax), %ecx
	.loc 1 2141 0
	subl	$5, %eax
.LVL1468:
	.loc 1 2137 0
	movl	%edx, 20(%edi)
.LVL1469:
	movzbl	1(%eax), %edx
.LVL1470:
	.loc 1 2138 0
	movl	%ecx, 20(%edi)
	.loc 1 2140 0
	orb	-4(%eax), %dl
.LVL1471:
	movsbl	%dl, %edx
	movl	%edx, -4(%eax)
	.loc 1 2141 0
	movl	%eax, 20(%edi)
.LBE3180:
	.loc 1 2143 0
	jmp	.L942
.LVL1472:
.L848:
.LBE3178:
.LBE3197:
.LBE4247:
.LBB4248:
.LBB3116:
.LBB3111:
.LBB3099:
	.loc 1 2634 0
	leal	-4(%eax), %edx
	.loc 1 2635 0
	leal	-9(%eax), %ecx
	.loc 1 2638 0
	subl	$5, %eax
.LVL1473:
	.loc 1 2634 0
	movl	%edx, 20(%edi)
.LVL1474:
	movzbl	1(%eax), %edx
.LVL1475:
	.loc 1 2635 0
	movl	%ecx, 20(%edi)
	.loc 1 2637 0
	xorb	-4(%eax), %dl
.LVL1476:
	movsbl	%dl, %edx
	movl	%edx, -4(%eax)
	.loc 1 2638 0
	movl	%eax, 20(%edi)
.LBE3099:
	.loc 1 2640 0
	jmp	.L942
.LVL1477:
.L849:
.LBB3100:
	.loc 1 2646 0
	movzwl	-4(%eax), %edx
	.loc 1 2647 0
	subl	$5, %eax
.LVL1478:
	.loc 1 2646 0
	xorw	-4(%eax), %dx
.LVL1479:
	movswl	%dx, %edx
	movl	%edx, -4(%eax)
.LVL1480:
	.loc 1 2647 0
	movl	%eax, 20(%edi)
.LVL1481:
.LBE3100:
	.loc 1 2649 0
	jmp	.L942
.LVL1482:
.L613:
.LBE3111:
.LBE3116:
.LBE4248:
	.loc 1 1395 0
	fld1
	.loc 1 1396 0
	addl	$1, %ebp
.LVL1483:
	.loc 1 1395 0
	faddl	-8(%eax)
	fstpl	-8(%eax)
	.loc 1 1397 0
	jmp	.L313
.LVL1484:
.L680:
.LBB4249:
.LBB3393:
.LBB3372:
.LBB3373:
	.loc 1 1679 0
	leal	-4(%eax), %edx
	movl	%edx, 20(%edi)
.LVL1485:
	.loc 1 1680 0
	leal	-9(%eax), %edx
	.loc 1 1679 0
	movzbl	-4(%eax), %ecx
.LVL1486:
	.loc 1 1680 0
	movl	%edx, 20(%edi)
.LVL1487:
	.loc 1 1682 0
	cmpb	-9(%eax), %cl
	seta	%cl
.LVL1488:
	movzbl	%cl, %ecx
	movl	%ecx, -9(%eax)
.LVL1489:
	.p2align 4,,10
	.p2align 3
.L689:
.LBE3373:
.LBE3372:
.LBE3393:
	.loc 1 1745 0
	leal	4(%edx), %eax
.LBE4249:
.LBB4250:
.LBB3048:
.LBB2959:
.LBB2864:
	.loc 1 969 0
	addl	$1, %ebp
.LVL1490:
.LBE2864:
.LBE2959:
.LBE3048:
.LBE4250:
.LBB4251:
	.loc 1 1745 0
	movl	%eax, 20(%edi)
	movb	$9, 4(%edx)
	jmp	.L313
.L540:
.LBE4251:
	.loc 1 915 0
	subw	$1, -4(%eax)
	.loc 1 916 0
	addl	$1, %ebp
.LVL1491:
	.loc 1 917 0
	jmp	.L313
.L608:
	.loc 1 1375 0
	addw	$1, -4(%eax)
	.loc 1 1376 0
	addl	$1, %ebp
.LVL1492:
	.loc 1 1377 0
	jmp	.L313
.LVL1493:
.L688:
.LBB4252:
.LBB3394:
.LBB3390:
.LBB3374:
	.loc 1 1730 0
	fldl	-8(%eax)
	xorl	%ecx, %ecx
	.loc 1 1728 0
	leal	-17(%eax), %edx
.LVL1494:
	.loc 1 1730 0
	fldl	-17(%eax)
	fxch	%st(1)
	fucomip	%st(1), %st
	fstp	%st(0)
	seta	%cl
.LVL1495:
.L957:
	movl	%ecx, -17(%eax)
.LBE3374:
	.loc 1 1732 0
	jmp	.L689
.LVL1496:
.L431:
.LBE3390:
.LBE3394:
.LBE4252:
.LBB4253:
.LBB3244:
.LBB3239:
.LBB3206:
	.loc 1 690 0
	leal	-4(%esi), %eax
	.loc 1 691 0
	leal	-9(%esi), %edx
	.loc 1 694 0
	subl	$5, %esi
.LVL1497:
	.loc 1 690 0
	movl	%eax, 20(%edi)
.LVL1498:
	movzbl	1(%esi), %eax
.LVL1499:
	.loc 1 691 0
	movl	%edx, 20(%edi)
	.loc 1 693 0
	andb	-4(%esi), %al
.LVL1500:
	movzbl	%al, %eax
	movl	%eax, -4(%esi)
	.loc 1 694 0
	movl	%esi, 20(%edi)
.LBE3206:
	.loc 1 696 0
	jmp	.L942
.LVL1501:
.L433:
.LBB3207:
	.loc 1 699 0
	leal	-4(%esi), %eax
	.loc 1 700 0
	leal	-9(%esi), %edx
	.loc 1 703 0
	subl	$5, %esi
.LVL1502:
	.loc 1 699 0
	movl	%eax, 20(%edi)
.LVL1503:
	movzbl	1(%esi), %eax
.LVL1504:
	.loc 1 700 0
	movl	%edx, 20(%edi)
	.loc 1 702 0
	andb	-4(%esi), %al
.LVL1505:
	movsbl	%al, %eax
	movl	%eax, -4(%esi)
	.loc 1 703 0
	movl	%esi, 20(%edi)
.LBE3207:
	.loc 1 705 0
	jmp	.L942
.LVL1506:
.L434:
.LBB3208:
	.loc 1 711 0
	movzwl	-4(%esi), %eax
	.loc 1 712 0
	subl	$5, %esi
.LVL1507:
	.loc 1 711 0
	andw	-4(%esi), %ax
.LVL1508:
	cwtl
	movl	%eax, -4(%esi)
.LVL1509:
	.loc 1 712 0
	movl	%esi, 20(%edi)
.LVL1510:
.LBE3208:
	.loc 1 714 0
	jmp	.L942
.LVL1511:
.L698:
.LBE3239:
.LBE3244:
.LBE4253:
.LBB4254:
.LBB3088:
.LBB3084:
.LBB3068:
	.loc 1 1772 0
	movzwl	-9(%eax), %ecx
	.loc 1 1770 0
	leal	-9(%eax), %edx
.LVL1512:
	.loc 1 1772 0
	cmpw	%cx, -4(%eax)
	setge	%cl
.LVL1513:
	movzbl	%cl, %ecx
	movl	%ecx, -9(%eax)
.LVL1514:
.LBE3068:
	.loc 1 1774 0
	jmp	.L704
.LVL1515:
.L699:
.LBB3069:
	.loc 1 1796 0
	movl	-9(%eax), %esi
	xorl	%ecx, %ecx
	cmpl	%esi, -4(%eax)
	.loc 1 1794 0
	leal	-9(%eax), %edx
.LVL1516:
	.loc 1 1796 0
	setnb	%cl
	movl	%ecx, -9(%eax)
.LBE3069:
	.loc 1 1798 0
	jmp	.L704
.LVL1517:
.L700:
.LBB3070:
	.loc 1 1812 0
	movl	-9(%eax), %ecx
	cmpl	%ecx, -4(%eax)
	.loc 1 1810 0
	leal	-9(%eax), %edx
.LVL1518:
	.loc 1 1812 0
	setge	%cl
.LVL1519:
	movzbl	%cl, %ecx
	movl	%ecx, -9(%eax)
.LVL1520:
.LBE3070:
	.loc 1 1814 0
	jmp	.L704
.LVL1521:
.L701:
.LBB3071:
	.loc 1 1788 0
	movl	-8(%eax), %esi
	.loc 1 1786 0
	leal	-17(%eax), %edx
.LVL1522:
	.loc 1 1788 0
	movl	$1, %ecx
	movl	%esi, 8(%esp)
	movl	-13(%eax), %esi
	cmpl	%esi, -4(%eax)
	ja	.L958
	jnb	.L963
.LVL1523:
.L708:
	xorl	%ecx, %ecx
	jmp	.L958
.L702:
.LVL1524:
.LBE3071:
.LBB3072:
	.loc 1 1780 0
	movl	-8(%eax), %esi
	.loc 1 1778 0
	leal	-17(%eax), %edx
.LVL1525:
	.loc 1 1780 0
	movl	$1, %ecx
	movl	%esi, 8(%esp)
	movl	-13(%eax), %esi
	cmpl	%esi, -4(%eax)
	jg	.L958
	jl	.L708
.LVL1526:
.L963:
.LBE3072:
.LBB3073:
	.loc 1 1788 0
	movl	8(%esp), %esi
	cmpl	-17(%eax), %esi
	jnb	.L958
	xorl	%ecx, %ecx
	jmp	.L958
.L703:
.LVL1527:
.LBE3073:
.LBB3074:
	.loc 1 1804 0
	fldl	-8(%eax)
	xorl	%ecx, %ecx
	.loc 1 1802 0
	leal	-17(%eax), %edx
.LVL1528:
	.loc 1 1804 0
	fldl	-17(%eax)
	fxch	%st(1)
	fucomip	%st(1), %st
	fstp	%st(0)
	setnb	%cl
.LVL1529:
.L958:
	movl	%ecx, -17(%eax)
.LBE3074:
	.loc 1 1806 0
	jmp	.L704
.LVL1530:
.L592:
.LBE3084:
.LBE3088:
.LBE4254:
.LBB4255:
.LBB3278:
.LBB3256:
.LBB3257:
	.loc 1 1294 0
	leal	-4(%eax), %edx
	movl	%edx, 20(%edi)
.LVL1531:
	.loc 1 1295 0
	leal	-9(%eax), %edx
	.loc 1 1294 0
	movzbl	-4(%eax), %ecx
.LVL1532:
	.loc 1 1295 0
	movl	%edx, 20(%edi)
.LVL1533:
	.loc 1 1297 0
	cmpb	-9(%eax), %cl
	setle	%cl
.LVL1534:
	movzbl	%cl, %ecx
	movl	%ecx, -9(%eax)
.LVL1535:
	.p2align 4,,10
	.p2align 3
.L599:
.LBE3257:
.LBE3256:
.LBE3278:
	.loc 1 1352 0
	leal	4(%edx), %eax
.LBE4255:
.LBB4256:
.LBB3049:
.LBB2960:
.LBB2865:
	.loc 1 969 0
	addl	$1, %ebp
.LVL1536:
.LBE2865:
.LBE2960:
.LBE3049:
.LBE4256:
.LBB4257:
	.loc 1 1352 0
	movl	%eax, 20(%edi)
	.loc 1 1353 0
	movb	$9, 4(%edx)
	jmp	.L313
.LVL1537:
.L593:
.LBB3279:
.LBB3274:
.LBB3258:
	.loc 1 1305 0
	movzwl	-9(%eax), %esi
	xorl	%ecx, %ecx
	.loc 1 1303 0
	leal	-9(%eax), %edx
.LVL1538:
	.loc 1 1305 0
	cmpw	%si, -4(%eax)
	setle	%cl
	movl	%ecx, -9(%eax)
.LBE3258:
	.loc 1 1307 0
	jmp	.L599
.LVL1539:
.L594:
.LBB3259:
	.loc 1 1329 0
	movl	-9(%eax), %esi
	xorl	%ecx, %ecx
	cmpl	%esi, -4(%eax)
	.loc 1 1327 0
	leal	-9(%eax), %edx
.LVL1540:
	.loc 1 1329 0
	setbe	%cl
	movl	%ecx, -9(%eax)
.LBE3259:
	.loc 1 1331 0
	jmp	.L599
.LVL1541:
.L595:
.LBB3260:
	.loc 1 1345 0
	movl	-9(%eax), %esi
	xorl	%ecx, %ecx
	cmpl	%esi, -4(%eax)
	.loc 1 1343 0
	leal	-9(%eax), %edx
.LVL1542:
	.loc 1 1345 0
	setle	%cl
	movl	%ecx, -9(%eax)
.LBE3260:
	.loc 1 1347 0
	jmp	.L599
.LVL1543:
.L596:
.LBB3261:
	.loc 1 1321 0
	movl	-8(%eax), %esi
	.loc 1 1319 0
	leal	-17(%eax), %edx
.LVL1544:
	.loc 1 1321 0
	movl	$1, %ecx
	movl	%esi, 8(%esp)
	movl	-13(%eax), %esi
	cmpl	%esi, -4(%eax)
	jb	.L956
	jbe	.L961
.LVL1545:
.L603:
	xorl	%ecx, %ecx
	jmp	.L956
.L597:
.LVL1546:
.LBE3261:
.LBB3262:
	.loc 1 1313 0
	movl	-8(%eax), %esi
	.loc 1 1311 0
	leal	-17(%eax), %edx
.LVL1547:
	.loc 1 1313 0
	movl	$1, %ecx
	movl	%esi, 8(%esp)
	movl	-13(%eax), %esi
	cmpl	%esi, -4(%eax)
	jl	.L956
	jg	.L603
.LVL1548:
.L961:
.LBE3262:
.LBB3263:
	.loc 1 1321 0
	movl	8(%esp), %esi
	cmpl	-17(%eax), %esi
	jbe	.L956
	xorl	%ecx, %ecx
	jmp	.L956
.LVL1549:
.L577:
.LBE3263:
.LBE3274:
.LBE3279:
.LBE4257:
.LBB4258:
.LBB3306:
.LBB3285:
.LBB3286:
	.loc 1 1201 0
	leal	-4(%eax), %edx
	movl	%edx, 20(%edi)
.LVL1550:
	.loc 1 1202 0
	leal	-9(%eax), %edx
	.loc 1 1201 0
	movzbl	-4(%eax), %ecx
.LVL1551:
	.loc 1 1202 0
	movl	%edx, 20(%edi)
.LVL1552:
	.loc 1 1204 0
	cmpb	-9(%eax), %cl
	setl	%cl
.LVL1553:
	movzbl	%cl, %ecx
	movl	%ecx, -9(%eax)
.LVL1554:
	.p2align 4,,10
	.p2align 3
.L584:
.LBE3286:
.LBE3285:
.LBE3306:
	.loc 1 1277 0
	leal	4(%edx), %eax
.LBE4258:
.LBB4259:
.LBB3050:
.LBB2961:
.LBB2866:
	.loc 1 969 0
	addl	$1, %ebp
.LVL1555:
.LBE2866:
.LBE2961:
.LBE3050:
.LBE4259:
.LBB4260:
	.loc 1 1277 0
	movl	%eax, 20(%edi)
	.loc 1 1278 0
	movb	$9, 4(%edx)
	jmp	.L313
.LVL1556:
.L578:
.LBB3307:
.LBB3303:
.LBB3287:
	.loc 1 1212 0
	movzwl	-9(%eax), %esi
	xorl	%ecx, %ecx
	.loc 1 1210 0
	leal	-9(%eax), %edx
.LVL1557:
	.loc 1 1212 0
	cmpw	%si, -4(%eax)
	setl	%cl
	movl	%ecx, -9(%eax)
.LBE3287:
	.loc 1 1214 0
	jmp	.L584
.LVL1558:
.L579:
.LBB3288:
	.loc 1 1236 0
	movl	-9(%eax), %esi
	xorl	%ecx, %ecx
	cmpl	%esi, -4(%eax)
	.loc 1 1234 0
	leal	-9(%eax), %edx
.LVL1559:
	.loc 1 1236 0
	setb	%cl
	movl	%ecx, -9(%eax)
.LBE3288:
	.loc 1 1238 0
	jmp	.L584
.LVL1560:
.L580:
.LBB3289:
	.loc 1 1252 0
	movl	-9(%eax), %esi
	xorl	%ecx, %ecx
	cmpl	%esi, -4(%eax)
	.loc 1 1250 0
	leal	-9(%eax), %edx
.LVL1561:
	.loc 1 1252 0
	setl	%cl
	movl	%ecx, -9(%eax)
.LBE3289:
	.loc 1 1254 0
	jmp	.L584
.LVL1562:
.L581:
.LBB3290:
	.loc 1 1228 0
	movl	-8(%eax), %esi
	.loc 1 1226 0
	leal	-17(%eax), %edx
.LVL1563:
	.loc 1 1228 0
	movl	$1, %ecx
	movl	%esi, 8(%esp)
	movl	-13(%eax), %esi
	cmpl	%esi, -4(%eax)
	jb	.L955
	jbe	.L960
.LVL1564:
.L588:
	xorl	%ecx, %ecx
	jmp	.L955
.L582:
.LVL1565:
.LBE3290:
.LBB3291:
	.loc 1 1220 0
	movl	-8(%eax), %esi
	.loc 1 1218 0
	leal	-17(%eax), %edx
.LVL1566:
	.loc 1 1220 0
	movl	$1, %ecx
	movl	%esi, 8(%esp)
	movl	-13(%eax), %esi
	cmpl	%esi, -4(%eax)
	jl	.L955
	jg	.L588
.LVL1567:
.L960:
.LBE3291:
.LBB3292:
	.loc 1 1228 0
	movl	8(%esp), %esi
	cmpl	-17(%eax), %esi
	jb	.L955
	xorl	%ecx, %ecx
	jmp	.L955
.L583:
.LVL1568:
.LBE3292:
.LBB3293:
	.loc 1 1244 0
	fldl	-17(%eax)
	xorl	%ecx, %ecx
	.loc 1 1242 0
	leal	-17(%eax), %edx
.LVL1569:
	.loc 1 1244 0
	fldl	-8(%eax)
.LVL1570:
	fxch	%st(1)
	fucomip	%st(1), %st
	fstp	%st(0)
	seta	%cl
.LVL1571:
.L955:
	movl	%ecx, -17(%eax)
.LBE3293:
	.loc 1 1246 0
	jmp	.L584
.LVL1572:
.L695:
.LBE3303:
.LBE3307:
.LBE4260:
.LBB4261:
.LBB3089:
.LBB3085:
.LBB3075:
	.loc 1 1753 0
	leal	-4(%eax), %edx
	movl	%edx, 20(%edi)
.LVL1573:
	.loc 1 1754 0
	leal	-9(%eax), %edx
	.loc 1 1753 0
	movzbl	-4(%eax), %ecx
.LVL1574:
	.loc 1 1754 0
	movl	%edx, 20(%edi)
.LVL1575:
	.loc 1 1756 0
	cmpb	-9(%eax), %cl
	setnb	%cl
.LVL1576:
	movzbl	%cl, %ecx
	movl	%ecx, -9(%eax)
.LVL1577:
.LBE3075:
	.loc 1 1758 0
	jmp	.L704
.LVL1578:
.L598:
.LBE3085:
.LBE3089:
.LBE4261:
.LBB4262:
.LBB3280:
.LBB3275:
.LBB3264:
	.loc 1 1337 0
	fldl	-17(%eax)
	xorl	%ecx, %ecx
	.loc 1 1335 0
	leal	-17(%eax), %edx
.LVL1579:
	.loc 1 1337 0
	fldl	-8(%eax)
.LVL1580:
	fxch	%st(1)
	fucomip	%st(1), %st
	fstp	%st(0)
	setnb	%cl
.LVL1581:
.L956:
	movl	%ecx, -17(%eax)
.LBE3264:
	.loc 1 1339 0
	jmp	.L599
.LVL1582:
.L575:
.LBE3275:
.LBE3280:
.LBE4262:
.LBB4263:
.LBB3308:
.LBB3304:
.LBB3294:
	.loc 1 1193 0
	leal	-4(%eax), %edx
	movl	%edx, 20(%edi)
.LVL1583:
	.loc 1 1194 0
	leal	-9(%eax), %edx
	.loc 1 1193 0
	movzbl	-4(%eax), %ecx
.LVL1584:
	.loc 1 1194 0
	movl	%edx, 20(%edi)
.LVL1585:
	.loc 1 1196 0
	cmpb	-9(%eax), %cl
	setb	%cl
.LVL1586:
	movzbl	%cl, %ecx
	movl	%ecx, -9(%eax)
.LVL1587:
.LBE3294:
	.loc 1 1198 0
	jmp	.L584
.LVL1588:
.L682:
.LBE3304:
.LBE3308:
.LBE4263:
.LBB4264:
.LBB3395:
.LBB3391:
.LBB3375:
	.loc 1 1687 0
	leal	-4(%eax), %edx
	movl	%edx, 20(%edi)
.LVL1589:
	.loc 1 1688 0
	leal	-9(%eax), %edx
	.loc 1 1687 0
	movzbl	-4(%eax), %ecx
.LVL1590:
	.loc 1 1688 0
	movl	%edx, 20(%edi)
.LVL1591:
	.loc 1 1690 0
	cmpb	-9(%eax), %cl
	setg	%cl
.LVL1592:
	movzbl	%cl, %ecx
	movl	%ecx, -9(%eax)
.LVL1593:
.LBE3375:
	.loc 1 1692 0
	jmp	.L689
.LVL1594:
.L683:
.LBB3376:
	.loc 1 1698 0
	movzwl	-9(%eax), %esi
	xorl	%ecx, %ecx
	.loc 1 1696 0
	leal	-9(%eax), %edx
.LVL1595:
	.loc 1 1698 0
	cmpw	%si, -4(%eax)
	setg	%cl
	movl	%ecx, -9(%eax)
.LBE3376:
	.loc 1 1700 0
	jmp	.L689
.LVL1596:
.L684:
.LBB3377:
	.loc 1 1722 0
	movl	-9(%eax), %esi
	xorl	%ecx, %ecx
	cmpl	%esi, -4(%eax)
	.loc 1 1720 0
	leal	-9(%eax), %edx
.LVL1597:
	.loc 1 1722 0
	seta	%cl
	movl	%ecx, -9(%eax)
.LBE3377:
	.loc 1 1724 0
	jmp	.L689
.LVL1598:
.L685:
.LBB3378:
	.loc 1 1738 0
	movl	-9(%eax), %esi
	xorl	%ecx, %ecx
	cmpl	%esi, -4(%eax)
	.loc 1 1736 0
	leal	-9(%eax), %edx
.LVL1599:
	.loc 1 1738 0
	setg	%cl
	movl	%ecx, -9(%eax)
.LBE3378:
	.loc 1 1740 0
	jmp	.L689
.LVL1600:
.L686:
.LBB3379:
	.loc 1 1714 0
	movl	-8(%eax), %esi
	.loc 1 1712 0
	leal	-17(%eax), %edx
.LVL1601:
	.loc 1 1714 0
	movl	$1, %ecx
	movl	%esi, 8(%esp)
	movl	-13(%eax), %esi
	cmpl	%esi, -4(%eax)
	ja	.L957
	jnb	.L962
.LVL1602:
.L693:
	xorl	%ecx, %ecx
	jmp	.L957
.L687:
.LVL1603:
.LBE3379:
.LBB3380:
	.loc 1 1706 0
	movl	-8(%eax), %esi
	.loc 1 1704 0
	leal	-17(%eax), %edx
.LVL1604:
	.loc 1 1706 0
	movl	$1, %ecx
	movl	%esi, 8(%esp)
	movl	-13(%eax), %esi
	cmpl	%esi, -4(%eax)
	jg	.L957
	jl	.L693
.LVL1605:
.L962:
.LBE3380:
.LBB3381:
	.loc 1 1714 0
	movl	8(%esp), %esi
	cmpl	-17(%eax), %esi
	ja	.L957
	xorl	%ecx, %ecx
	jmp	.L957
.LVL1606:
.L590:
.LBE3381:
.LBE3391:
.LBE3395:
.LBE4264:
.LBB4265:
.LBB3281:
.LBB3276:
.LBB3265:
	.loc 1 1286 0
	leal	-4(%eax), %edx
	movl	%edx, 20(%edi)
.LVL1607:
	.loc 1 1287 0
	leal	-9(%eax), %edx
	.loc 1 1286 0
	movzbl	-4(%eax), %ecx
.LVL1608:
	.loc 1 1287 0
	movl	%edx, 20(%edi)
.LVL1609:
	.loc 1 1289 0
	cmpb	-9(%eax), %cl
	setbe	%cl
.LVL1610:
	movzbl	%cl, %ecx
	movl	%ecx, -9(%eax)
.LVL1611:
.LBE3265:
	.loc 1 1291 0
	jmp	.L599
.LVL1612:
.L846:
.LBE3276:
.LBE3281:
.LBE4265:
.LBB4266:
.LBB3117:
.LBB3112:
.LBB3101:
	.loc 1 2625 0
	leal	-4(%eax), %edx
	.loc 1 2626 0
	leal	-9(%eax), %ecx
	.loc 1 2629 0
	subl	$5, %eax
.LVL1613:
	.loc 1 2625 0
	movl	%edx, 20(%edi)
.LVL1614:
	movzbl	1(%eax), %edx
.LVL1615:
	.loc 1 2626 0
	movl	%ecx, 20(%edi)
	.loc 1 2628 0
	xorb	-4(%eax), %dl
.LVL1616:
	movzbl	%dl, %edx
	movl	%edx, -4(%eax)
	.loc 1 2629 0
	movl	%eax, 20(%edi)
.LBE3101:
	.loc 1 2631 0
	jmp	.L942
.LVL1617:
.L753:
.LBE3112:
.LBE3117:
.LBE4266:
.LBB4267:
.LBB3198:
.LBB3195:
.LBB3181:
	.loc 1 2167 0
	movl	-4(%eax), %edx
	orl	%edx, -9(%eax)
.LVL1618:
	.loc 1 2168 0
	subl	$5, %eax
.LVL1619:
	movl	%eax, 20(%edi)
.LVL1620:
.LBE3181:
	.loc 1 2170 0
	jmp	.L942
.LVL1621:
.L754:
.LBB3182:
	.loc 1 2113 0
